
TP-Meter.elf:     file format elf32-avr

Sections:
Idx Name          Size      VMA       LMA       File off  Algn
  0 .text         00001800  00000000  00000000  000000b4  2**1
                  CONTENTS, ALLOC, LOAD, READONLY, CODE
  1 .data         00000102  00800060  00001800  000018b4  2**0
                  CONTENTS, ALLOC, LOAD, DATA
  2 .bss          0000003d  00800162  00800162  000019b6  2**0
                  ALLOC
  3 .eeprom       0000000a  00810000  00810000  000019b6  2**0
                  CONTENTS, ALLOC, LOAD, DATA
  4 .comment      00000030  00000000  00000000  000019c0  2**0
                  CONTENTS, READONLY
  5 .debug_aranges 00000268  00000000  00000000  000019f0  2**0
                  CONTENTS, READONLY, DEBUGGING
  6 .debug_info   00002fdb  00000000  00000000  00001c58  2**0
                  CONTENTS, READONLY, DEBUGGING
  7 .debug_abbrev 000008e8  00000000  00000000  00004c33  2**0
                  CONTENTS, READONLY, DEBUGGING
  8 .debug_line   00000cbd  00000000  00000000  0000551b  2**0
                  CONTENTS, READONLY, DEBUGGING
  9 .debug_frame  00000754  00000000  00000000  000061d8  2**2
                  CONTENTS, READONLY, DEBUGGING
 10 .debug_str    00000891  00000000  00000000  0000692c  2**0
                  CONTENTS, READONLY, DEBUGGING
 11 .debug_loc    000020fa  00000000  00000000  000071bd  2**0
                  CONTENTS, READONLY, DEBUGGING
 12 .debug_ranges 00000230  00000000  00000000  000092b7  2**0
                  CONTENTS, READONLY, DEBUGGING

Disassembly of section .text:

00000000 <__vectors>:
       0:	27 c0       	rjmp	.+78     	; 0x50 <__ctors_end>
       2:	41 c0       	rjmp	.+130    	; 0x86 <__bad_interrupt>
       4:	40 c0       	rjmp	.+128    	; 0x86 <__bad_interrupt>
       6:	3f c0       	rjmp	.+126    	; 0x86 <__bad_interrupt>
       8:	3e c0       	rjmp	.+124    	; 0x86 <__bad_interrupt>
       a:	3d c0       	rjmp	.+122    	; 0x86 <__bad_interrupt>
       c:	3c c0       	rjmp	.+120    	; 0x86 <__bad_interrupt>
       e:	3b c0       	rjmp	.+118    	; 0x86 <__bad_interrupt>
      10:	3a c0       	rjmp	.+116    	; 0x86 <__bad_interrupt>
      12:	ae ca       	rjmp	.-2724   	; 0xfffff570 <__eeprom_end+0xff7ef566>
      14:	38 c0       	rjmp	.+112    	; 0x86 <__bad_interrupt>
      16:	37 c0       	rjmp	.+110    	; 0x86 <__bad_interrupt>
      18:	36 c0       	rjmp	.+108    	; 0x86 <__bad_interrupt>
      1a:	35 c0       	rjmp	.+106    	; 0x86 <__bad_interrupt>
      1c:	20 cb       	rjmp	.-2496   	; 0xfffff65e <__eeprom_end+0xff7ef654>
      1e:	33 c0       	rjmp	.+102    	; 0x86 <__bad_interrupt>
      20:	32 c0       	rjmp	.+100    	; 0x86 <__bad_interrupt>
      22:	31 c0       	rjmp	.+98     	; 0x86 <__bad_interrupt>
      24:	30 c0       	rjmp	.+96     	; 0x86 <__bad_interrupt>
      26:	80 c6       	rjmp	.+3328   	; 0xd28 <settings+0x28>
      28:	92 c6       	rjmp	.+3364   	; 0xd4e <settings+0x4e>
      2a:	a3 c6       	rjmp	.+3398   	; 0xd72 <settings+0x72>
      2c:	b3 c6       	rjmp	.+3430   	; 0xd94 <settings+0x94>
      2e:	ed c6       	rjmp	.+3546   	; 0xe0a <settings+0x10a>
      30:	00 c7       	rjmp	.+3584   	; 0xe32 <settings+0x132>
      32:	0d c7       	rjmp	.+3610   	; 0xe4e <settings+0x14e>
      34:	f1 c9       	rjmp	.-3102   	; 0xfffff418 <__eeprom_end+0xff7ef40e>
      36:	f9 c9       	rjmp	.-3086   	; 0xfffff42a <__eeprom_end+0xff7ef420>
      38:	07 ca       	rjmp	.-3058   	; 0xfffff448 <__eeprom_end+0xff7ef43e>
      3a:	0f ca       	rjmp	.-3042   	; 0xfffff45a <__eeprom_end+0xff7ef450>
      3c:	1d ca       	rjmp	.-3014   	; 0xfffff478 <__eeprom_end+0xff7ef46e>
      3e:	23 ca       	rjmp	.-3002   	; 0xfffff486 <__eeprom_end+0xff7ef47c>
      40:	2b ca       	rjmp	.-2986   	; 0xfffff498 <__eeprom_end+0xff7ef48e>
      42:	40 ca       	rjmp	.-2944   	; 0xfffff4c4 <__eeprom_end+0xff7ef4ba>
      44:	48 ca       	rjmp	.-2928   	; 0xfffff4d6 <__eeprom_end+0xff7ef4cc>
      46:	55 ca       	rjmp	.-2902   	; 0xfffff4f2 <__eeprom_end+0xff7ef4e8>
      48:	5c ca       	rjmp	.-2888   	; 0xfffff502 <__eeprom_end+0xff7ef4f8>
      4a:	67 ca       	rjmp	.-2866   	; 0xfffff51a <__eeprom_end+0xff7ef510>
      4c:	6d ca       	rjmp	.-2854   	; 0xfffff528 <__eeprom_end+0xff7ef51e>
      4e:	74 ca       	rjmp	.-2840   	; 0xfffff538 <__eeprom_end+0xff7ef52e>

00000050 <__ctors_end>:
      50:	11 24       	eor	r1, r1
      52:	1f be       	out	0x3f, r1	; 63
      54:	cf e5       	ldi	r28, 0x5F	; 95
      56:	d4 e0       	ldi	r29, 0x04	; 4
      58:	de bf       	out	0x3e, r29	; 62
      5a:	cd bf       	out	0x3d, r28	; 61

0000005c <__do_copy_data>:
      5c:	11 e0       	ldi	r17, 0x01	; 1
      5e:	a0 e6       	ldi	r26, 0x60	; 96
      60:	b0 e0       	ldi	r27, 0x00	; 0
      62:	e0 e0       	ldi	r30, 0x00	; 0
      64:	f8 e1       	ldi	r31, 0x18	; 24
      66:	02 c0       	rjmp	.+4      	; 0x6c <__do_copy_data+0x10>
      68:	05 90       	lpm	r0, Z+
      6a:	0d 92       	st	X+, r0
      6c:	a2 36       	cpi	r26, 0x62	; 98
      6e:	b1 07       	cpc	r27, r17
      70:	d9 f7       	brne	.-10     	; 0x68 <__do_copy_data+0xc>

00000072 <__do_clear_bss>:
      72:	21 e0       	ldi	r18, 0x01	; 1
      74:	a2 e6       	ldi	r26, 0x62	; 98
      76:	b1 e0       	ldi	r27, 0x01	; 1
      78:	01 c0       	rjmp	.+2      	; 0x7c <.do_clear_bss_start>

0000007a <.do_clear_bss_loop>:
      7a:	1d 92       	st	X+, r1

0000007c <.do_clear_bss_start>:
      7c:	af 39       	cpi	r26, 0x9F	; 159
      7e:	b2 07       	cpc	r27, r18
      80:	e1 f7       	brne	.-8      	; 0x7a <.do_clear_bss_loop>
      82:	14 db       	rcall	.-2520   	; 0xfffff6ac <__eeprom_end+0xff7ef6a2>
      84:	bb cb       	rjmp	.-2186   	; 0xfffff7fc <__eeprom_end+0xff7ef7f2>

00000086 <__bad_interrupt>:
      86:	bc cf       	rjmp	.-136    	; 0x0 <__vectors>

00000088 <DELAY>:

//-------------------------------
/* DELAY FUNCTION */
//-------------------------------
static void DELAY(volatile int16u_t ms)
{
      88:	cf 93       	push	r28
      8a:	df 93       	push	r29
      8c:	00 d0       	rcall	.+0      	; 0x8e <DELAY+0x6>
      8e:	00 d0       	rcall	.+0      	; 0x90 <DELAY+0x8>
      90:	00 d0       	rcall	.+0      	; 0x92 <DELAY+0xa>
      92:	cd b7       	in	r28, 0x3d	; 61
      94:	de b7       	in	r29, 0x3e	; 62
      96:	9e 83       	std	Y+6, r25	; 0x06
      98:	8d 83       	std	Y+5, r24	; 0x05
 volatile int16u_t alfa,beta;
 for(alfa=0;alfa<ms;alfa++)
      9a:	1a 82       	std	Y+2, r1	; 0x02
      9c:	19 82       	std	Y+1, r1	; 0x01
      9e:	29 81       	ldd	r18, Y+1	; 0x01
      a0:	3a 81       	ldd	r19, Y+2	; 0x02
      a2:	8d 81       	ldd	r24, Y+5	; 0x05
      a4:	9e 81       	ldd	r25, Y+6	; 0x06
      a6:	28 17       	cp	r18, r24
      a8:	39 07       	cpc	r19, r25
      aa:	e8 f4       	brcc	.+58     	; 0xe6 <DELAY+0x5e>
  for(beta=0;beta<MCU_WAIT_CYCLES;beta++)
      ac:	1c 82       	std	Y+4, r1	; 0x04
      ae:	1b 82       	std	Y+3, r1	; 0x03
      b0:	8b 81       	ldd	r24, Y+3	; 0x03
      b2:	9c 81       	ldd	r25, Y+4	; 0x04
      b4:	88 31       	cpi	r24, 0x18	; 24
      b6:	91 40       	sbci	r25, 0x01	; 1
      b8:	50 f4       	brcc	.+20     	; 0xce <DELAY+0x46>
      ba:	8b 81       	ldd	r24, Y+3	; 0x03
      bc:	9c 81       	ldd	r25, Y+4	; 0x04
      be:	01 96       	adiw	r24, 0x01	; 1
      c0:	9c 83       	std	Y+4, r25	; 0x04
      c2:	8b 83       	std	Y+3, r24	; 0x03
      c4:	8b 81       	ldd	r24, Y+3	; 0x03
      c6:	9c 81       	ldd	r25, Y+4	; 0x04
      c8:	88 31       	cpi	r24, 0x18	; 24
      ca:	91 40       	sbci	r25, 0x01	; 1
      cc:	b0 f3       	brcs	.-20     	; 0xba <DELAY+0x32>
/* DELAY FUNCTION */
//-------------------------------
static void DELAY(volatile int16u_t ms)
{
 volatile int16u_t alfa,beta;
 for(alfa=0;alfa<ms;alfa++)
      ce:	89 81       	ldd	r24, Y+1	; 0x01
      d0:	9a 81       	ldd	r25, Y+2	; 0x02
      d2:	01 96       	adiw	r24, 0x01	; 1
      d4:	9a 83       	std	Y+2, r25	; 0x02
      d6:	89 83       	std	Y+1, r24	; 0x01
      d8:	29 81       	ldd	r18, Y+1	; 0x01
      da:	3a 81       	ldd	r19, Y+2	; 0x02
      dc:	8d 81       	ldd	r24, Y+5	; 0x05
      de:	9e 81       	ldd	r25, Y+6	; 0x06
      e0:	28 17       	cp	r18, r24
      e2:	39 07       	cpc	r19, r25
      e4:	18 f3       	brcs	.-58     	; 0xac <DELAY+0x24>
  for(beta=0;beta<MCU_WAIT_CYCLES;beta++)
  ;
}
      e6:	26 96       	adiw	r28, 0x06	; 6
      e8:	0f b6       	in	r0, 0x3f	; 63
      ea:	f8 94       	cli
      ec:	de bf       	out	0x3e, r29	; 62
      ee:	0f be       	out	0x3f, r0	; 63
      f0:	cd bf       	out	0x3d, r28	; 61
      f2:	df 91       	pop	r29
      f4:	cf 91       	pop	r28
      f6:	08 95       	ret

000000f8 <LCD_STROBE>:

//-------------------------------
/* INITIATE TRANSFER OF DATA/COMMAND TO LCD */
//-------------------------------
static void LCD_STROBE(int16u_t loop)
{
      f8:	cf 93       	push	r28
      fa:	df 93       	push	r29
      fc:	ec 01       	movw	r28, r24
 ENABLE(LCD_WIRE,E);
      fe:	94 9a       	sbi	0x12, 4	; 18
 DELAY(MCU_CLK);
     100:	83 e0       	ldi	r24, 0x03	; 3
     102:	90 e0       	ldi	r25, 0x00	; 0
     104:	c1 df       	rcall	.-126    	; 0x88 <DELAY>
 DISABLE(LCD_WIRE,E); // Enter
     106:	94 98       	cbi	0x12, 4	; 18
 DELAY(loop);
     108:	ce 01       	movw	r24, r28
     10a:	be df       	rcall	.-132    	; 0x88 <DELAY>
}
     10c:	df 91       	pop	r29
     10e:	cf 91       	pop	r28
     110:	08 95       	ret

00000112 <HIGHBITS>:
//-------------------------------
/* PUT HIGH BITS */
//-------------------------------
static void HIGHBITS(int8u_t data)
{
 if(data & 0x80) ENABLE(LCD_WIRE,D7); else DISABLE(LCD_WIRE,D7);
     112:	88 23       	and	r24, r24
     114:	14 f4       	brge	.+4      	; 0x11a <HIGHBITS+0x8>
     116:	90 9a       	sbi	0x12, 0	; 18
     118:	01 c0       	rjmp	.+2      	; 0x11c <HIGHBITS+0xa>
     11a:	90 98       	cbi	0x12, 0	; 18
 if(data & 0x40) ENABLE(LCD_WIRE,D6); else DISABLE(LCD_WIRE,D6);
     11c:	86 ff       	sbrs	r24, 6
     11e:	02 c0       	rjmp	.+4      	; 0x124 <HIGHBITS+0x12>
     120:	91 9a       	sbi	0x12, 1	; 18
     122:	01 c0       	rjmp	.+2      	; 0x126 <HIGHBITS+0x14>
     124:	91 98       	cbi	0x12, 1	; 18
 if(data & 0x20) ENABLE(LCD_WIRE,D5); else DISABLE(LCD_WIRE,D5);
     126:	85 ff       	sbrs	r24, 5
     128:	02 c0       	rjmp	.+4      	; 0x12e <HIGHBITS+0x1c>
     12a:	92 9a       	sbi	0x12, 2	; 18
     12c:	01 c0       	rjmp	.+2      	; 0x130 <HIGHBITS+0x1e>
     12e:	92 98       	cbi	0x12, 2	; 18
 if(data & 0x10) ENABLE(LCD_WIRE,D4); else DISABLE(LCD_WIRE,D4);
     130:	84 ff       	sbrs	r24, 4
     132:	02 c0       	rjmp	.+4      	; 0x138 <HIGHBITS+0x26>
     134:	93 9a       	sbi	0x12, 3	; 18
     136:	08 95       	ret
     138:	93 98       	cbi	0x12, 3	; 18
     13a:	08 95       	ret

0000013c <LOWBITS>:
//-------------------------------
/* PUT LOW BITS */
//-------------------------------
static void LOWBITS(int8u_t data)
{
 if(data & 0x08) ENABLE(LCD_WIRE,D7); else DISABLE(LCD_WIRE,D7);
     13c:	83 ff       	sbrs	r24, 3
     13e:	02 c0       	rjmp	.+4      	; 0x144 <LOWBITS+0x8>
     140:	90 9a       	sbi	0x12, 0	; 18
     142:	01 c0       	rjmp	.+2      	; 0x146 <LOWBITS+0xa>
     144:	90 98       	cbi	0x12, 0	; 18
 if(data & 0x04) ENABLE(LCD_WIRE,D6); else DISABLE(LCD_WIRE,D6);
     146:	82 ff       	sbrs	r24, 2
     148:	02 c0       	rjmp	.+4      	; 0x14e <LOWBITS+0x12>
     14a:	91 9a       	sbi	0x12, 1	; 18
     14c:	01 c0       	rjmp	.+2      	; 0x150 <LOWBITS+0x14>
     14e:	91 98       	cbi	0x12, 1	; 18
 if(data & 0x02) ENABLE(LCD_WIRE,D5); else DISABLE(LCD_WIRE,D5);
     150:	81 ff       	sbrs	r24, 1
     152:	02 c0       	rjmp	.+4      	; 0x158 <LOWBITS+0x1c>
     154:	92 9a       	sbi	0x12, 2	; 18
     156:	01 c0       	rjmp	.+2      	; 0x15a <LOWBITS+0x1e>
     158:	92 98       	cbi	0x12, 2	; 18
 if(data & 0x01) ENABLE(LCD_WIRE,D4); else DISABLE(LCD_WIRE,D4);
     15a:	80 ff       	sbrs	r24, 0
     15c:	02 c0       	rjmp	.+4      	; 0x162 <LOWBITS+0x26>
     15e:	93 9a       	sbi	0x12, 3	; 18
     160:	08 95       	ret
     162:	93 98       	cbi	0x12, 3	; 18
     164:	08 95       	ret

00000166 <lcd_cmd>:

//-------------------------------
/* PUT DATA/COMMAND TO LCD */
//-------------------------------
void lcd_cmd(int8u_t data, int16u_t loop)
{/* LCD ELEMENTARY COMMAND */
     166:	1f 93       	push	r17
     168:	cf 93       	push	r28
     16a:	df 93       	push	r29
     16c:	18 2f       	mov	r17, r24
     16e:	eb 01       	movw	r28, r22
 HIGHBITS(data);
     170:	d0 df       	rcall	.-96     	; 0x112 <HIGHBITS>
 LCD_STROBE(0);
     172:	80 e0       	ldi	r24, 0x00	; 0
     174:	90 e0       	ldi	r25, 0x00	; 0
     176:	c0 df       	rcall	.-128    	; 0xf8 <LCD_STROBE>
 LOWBITS(data);
     178:	81 2f       	mov	r24, r17
     17a:	e0 df       	rcall	.-64     	; 0x13c <LOWBITS>
 LCD_STROBE(loop); // busy delay
     17c:	ce 01       	movw	r24, r28
     17e:	bc df       	rcall	.-136    	; 0xf8 <LCD_STROBE>
}
     180:	df 91       	pop	r29
     182:	cf 91       	pop	r28
     184:	1f 91       	pop	r17
     186:	08 95       	ret

00000188 <lcd_clrscr>:
//-------------------------------
/* LCD CLEAR SCREEN */
//-------------------------------
void lcd_clrscr(void)
{
 lcd_cmd(0x01,2); // clear screen
     188:	62 e0       	ldi	r22, 0x02	; 2
     18a:	70 e0       	ldi	r23, 0x00	; 0
     18c:	81 e0       	ldi	r24, 0x01	; 1
     18e:	eb df       	rcall	.-42     	; 0x166 <lcd_cmd>
     190:	08 95       	ret

00000192 <lcd_return>:
//-------------------------------
/* LCD RETURN CURSOR */
//-------------------------------
void lcd_return(void)
{
 lcd_cmd(0x02,2); // return cursor
     192:	62 e0       	ldi	r22, 0x02	; 2
     194:	70 e0       	ldi	r23, 0x00	; 0
     196:	82 e0       	ldi	r24, 0x02	; 2
     198:	e6 df       	rcall	.-52     	; 0x166 <lcd_cmd>
     19a:	08 95       	ret

0000019c <lcd_goto>:

//-------------------------------
/* GO TO SPECIFIED MEMORY ADDRESS */
//-------------------------------
void lcd_goto(int8u_t line, int8u_t address)
{/* GO TO SPECIFIED ADDRESS */
     19c:	96 2f       	mov	r25, r22
 switch(line)
     19e:	82 30       	cpi	r24, 0x02	; 2
     1a0:	51 f0       	breq	.+20     	; 0x1b6 <lcd_goto+0x1a>
     1a2:	85 30       	cpi	r24, 0x05	; 5
     1a4:	71 f0       	breq	.+28     	; 0x1c2 <lcd_goto+0x26>
     1a6:	81 30       	cpi	r24, 0x01	; 1
     1a8:	89 f4       	brne	.+34     	; 0x1cc <lcd_goto+0x30>
 {
  case     1: lcd_cmd(0x80|address,0); break;
     1aa:	60 e0       	ldi	r22, 0x00	; 0
     1ac:	70 e0       	ldi	r23, 0x00	; 0
     1ae:	89 2f       	mov	r24, r25
     1b0:	80 68       	ori	r24, 0x80	; 128
     1b2:	d9 df       	rcall	.-78     	; 0x166 <lcd_cmd>
     1b4:	08 95       	ret
  case     2: lcd_cmd(0xC0|address,0); break;
     1b6:	60 e0       	ldi	r22, 0x00	; 0
     1b8:	70 e0       	ldi	r23, 0x00	; 0
     1ba:	89 2f       	mov	r24, r25
     1bc:	80 6c       	ori	r24, 0xC0	; 192
     1be:	d3 df       	rcall	.-90     	; 0x166 <lcd_cmd>
     1c0:	08 95       	ret
  case CGRAM: lcd_cmd(0x40|address,0); break; // CGRAM address
     1c2:	60 e0       	ldi	r22, 0x00	; 0
     1c4:	70 e0       	ldi	r23, 0x00	; 0
     1c6:	89 2f       	mov	r24, r25
     1c8:	80 64       	ori	r24, 0x40	; 64
     1ca:	cd df       	rcall	.-102    	; 0x166 <lcd_cmd>
     1cc:	08 95       	ret

000001ce <lcd_prints>:
//-------------------------------
/* WRITE ENTIRE STRING 
   TO SPECIFIED MEMORY */
//-------------------------------
void lcd_prints(const char *p)
{/* WRITE A STRING TO LCD */
     1ce:	cf 93       	push	r28
     1d0:	df 93       	push	r29
 ENABLE(LCD_WIRE,RS);
     1d2:	95 9a       	sbi	0x12, 5	; 18
     1d4:	ec 01       	movw	r28, r24
  while(*p)
     1d6:	1e c0       	rjmp	.+60     	; 0x214 <lcd_prints+0x46>
  {
#if ( USE_FORMATTED_OUTPUT )
//-------------------------------
// new line
//-------------------------------
   if((*p == '\n'))
     1d8:	8a 30       	cpi	r24, 0x0A	; 10
     1da:	31 f4       	brne	.+12     	; 0x1e8 <lcd_prints+0x1a>
   {
	DISABLE(LCD_WIRE,RS);
     1dc:	95 98       	cbi	0x12, 5	; 18
	lcd_goto(2,0);
     1de:	60 e0       	ldi	r22, 0x00	; 0
     1e0:	82 e0       	ldi	r24, 0x02	; 2
     1e2:	dc df       	rcall	.-72     	; 0x19c <lcd_goto>
	ENABLE(LCD_WIRE,RS);
     1e4:	95 9a       	sbi	0x12, 5	; 18
     1e6:	16 c0       	rjmp	.+44     	; 0x214 <lcd_prints+0x46>
	p++;
   }
//-------------------------------
// return
//-------------------------------
   else if((*p == '\r'))
     1e8:	8d 30       	cpi	r24, 0x0D	; 13
     1ea:	21 f4       	brne	.+8      	; 0x1f4 <lcd_prints+0x26>
   {
	DISABLE(LCD_WIRE,RS);
     1ec:	95 98       	cbi	0x12, 5	; 18
	lcd_return();
     1ee:	d1 df       	rcall	.-94     	; 0x192 <lcd_return>
	ENABLE(LCD_WIRE,RS);
     1f0:	95 9a       	sbi	0x12, 5	; 18
     1f2:	10 c0       	rjmp	.+32     	; 0x214 <lcd_prints+0x46>
	p++;
   }
//-------------------------------
// tab
//-------------------------------
   else if((*p == '\t'))
     1f4:	89 30       	cpi	r24, 0x09	; 9
     1f6:	59 f4       	brne	.+22     	; 0x20e <lcd_prints+0x40>
   {
	DISABLE(LCD_WIRE,RS);
     1f8:	95 98       	cbi	0x12, 5	; 18
     	  	 lcd_cmd(0x14,0); // cursor right shift
     		 lcd_cmd(0x14,0); // cursor right shift
     		 lcd_cmd(0x14,0); // cursor right shift
     case 4: lcd_cmd(0x14,0); // cursor right shift
     	  	 lcd_cmd(0x14,0); // cursor right shift
     case 2: lcd_cmd(0x14,0); // cursor right shift
     1fa:	60 e0       	ldi	r22, 0x00	; 0
     1fc:	70 e0       	ldi	r23, 0x00	; 0
     1fe:	84 e1       	ldi	r24, 0x14	; 20
     200:	b2 df       	rcall	.-156    	; 0x166 <lcd_cmd>
     case 1: lcd_cmd(0x14,0); // cursor right shift
     202:	60 e0       	ldi	r22, 0x00	; 0
     204:	70 e0       	ldi	r23, 0x00	; 0
     206:	84 e1       	ldi	r24, 0x14	; 20
     208:	ae df       	rcall	.-164    	; 0x166 <lcd_cmd>
    }
	ENABLE(LCD_WIRE,RS);
     20a:	95 9a       	sbi	0x12, 5	; 18
     20c:	03 c0       	rjmp	.+6      	; 0x214 <lcd_prints+0x46>
//-------------------------------
// display
//-------------------------------
   else
#endif
    lcd_cmd(*p++,0);
     20e:	60 e0       	ldi	r22, 0x00	; 0
     210:	70 e0       	ldi	r23, 0x00	; 0
     212:	a9 df       	rcall	.-174    	; 0x166 <lcd_cmd>
   TO SPECIFIED MEMORY */
//-------------------------------
void lcd_prints(const char *p)
{/* WRITE A STRING TO LCD */
 ENABLE(LCD_WIRE,RS);
  while(*p)
     214:	89 91       	ld	r24, Y+
     216:	81 11       	cpse	r24, r1
     218:	df cf       	rjmp	.-66     	; 0x1d8 <lcd_prints+0xa>
//-------------------------------
   else
#endif
    lcd_cmd(*p++,0);
 }
 DISABLE(LCD_WIRE,RS);
     21a:	95 98       	cbi	0x12, 5	; 18
}
     21c:	df 91       	pop	r29
     21e:	cf 91       	pop	r28
     220:	08 95       	ret

00000222 <lcd_putc>:
/* WRITE A SINGLE CHARACTER 
   TO SPECIFIED MEMORY */
//-------------------------------
void lcd_putc(int8u_t data)
{/* WRITE A CHARACTER TO LCD */
 ENABLE(LCD_WIRE,RS);
     222:	95 9a       	sbi	0x12, 5	; 18
 lcd_cmd(data,0);
     224:	60 e0       	ldi	r22, 0x00	; 0
     226:	70 e0       	ldi	r23, 0x00	; 0
     228:	9e df       	rcall	.-196    	; 0x166 <lcd_cmd>
 DISABLE(LCD_WIRE,RS);
     22a:	95 98       	cbi	0x12, 5	; 18
     22c:	08 95       	ret

0000022e <lcd_load>:

//-------------------------------
/* LOAD USER-DEFINED CHARACTER IN CGRAM */
//-------------------------------
void lcd_load(int8u_t* vector, int8u_t position)
{/* USE CGRAM CHAR SPACE: 0 to 7 */
     22e:	0f 93       	push	r16
     230:	1f 93       	push	r17
     232:	cf 93       	push	r28
     234:	df 93       	push	r29
     236:	08 2f       	mov	r16, r24
     238:	19 2f       	mov	r17, r25
 int8u_t i;
 lcd_goto(CGRAM,position*DRAW_CHAR_SIZE);
     23a:	66 0f       	add	r22, r22
     23c:	66 0f       	add	r22, r22
     23e:	66 0f       	add	r22, r22
     240:	85 e0       	ldi	r24, 0x05	; 5
     242:	ac df       	rcall	.-168    	; 0x19c <lcd_goto>
     244:	c0 2f       	mov	r28, r16
     246:	d1 2f       	mov	r29, r17
 for(i=0;i<DRAW_CHAR_SIZE;i++)
     248:	10 e0       	ldi	r17, 0x00	; 0
  lcd_putc(vector[i]);
     24a:	89 91       	ld	r24, Y+
     24c:	ea df       	rcall	.-44     	; 0x222 <lcd_putc>
//-------------------------------
void lcd_load(int8u_t* vector, int8u_t position)
{/* USE CGRAM CHAR SPACE: 0 to 7 */
 int8u_t i;
 lcd_goto(CGRAM,position*DRAW_CHAR_SIZE);
 for(i=0;i<DRAW_CHAR_SIZE;i++)
     24e:	1f 5f       	subi	r17, 0xFF	; 255
     250:	18 30       	cpi	r17, 0x08	; 8
     252:	d9 f7       	brne	.-10     	; 0x24a <lcd_load+0x1c>
  lcd_putc(vector[i]);
}
     254:	df 91       	pop	r29
     256:	cf 91       	pop	r28
     258:	1f 91       	pop	r17
     25a:	0f 91       	pop	r16
     25c:	08 95       	ret

0000025e <cursor_shift>:
/* SHIFT CURSOR 
   TO SPECIFIED DIRECTION */
//-------------------------------
void cursor_shift(int8u_t direction)
{
 switch(direction)
     25e:	8c 33       	cpi	r24, 0x3C	; 60
     260:	39 f0       	breq	.+14     	; 0x270 <cursor_shift+0x12>
     262:	8e 33       	cpi	r24, 0x3E	; 62
     264:	49 f4       	brne	.+18     	; 0x278 <cursor_shift+0x1a>
 {
  case RIGHT : lcd_cmd(0x14,0); break; // shift cursor to right
     266:	60 e0       	ldi	r22, 0x00	; 0
     268:	70 e0       	ldi	r23, 0x00	; 0
     26a:	84 e1       	ldi	r24, 0x14	; 20
     26c:	7c df       	rcall	.-264    	; 0x166 <lcd_cmd>
     26e:	08 95       	ret
  case LEFT  : lcd_cmd(0x10,0); break; // shift cursor to left
     270:	60 e0       	ldi	r22, 0x00	; 0
     272:	70 e0       	ldi	r23, 0x00	; 0
     274:	80 e1       	ldi	r24, 0x10	; 16
     276:	77 df       	rcall	.-274    	; 0x166 <lcd_cmd>
     278:	08 95       	ret

0000027a <lcd_itostr>:

//-------------------------------
/* DISPLAY A INTEGER NUMER */
//-------------------------------
void lcd_itostr(int32s_t value)
{/* DISPLAY A INTEGER NUMER: +/- 2147483647 */
     27a:	4f 92       	push	r4
     27c:	5f 92       	push	r5
     27e:	6f 92       	push	r6
     280:	7f 92       	push	r7
     282:	8f 92       	push	r8
     284:	9f 92       	push	r9
     286:	af 92       	push	r10
     288:	bf 92       	push	r11
     28a:	cf 92       	push	r12
     28c:	df 92       	push	r13
     28e:	ef 92       	push	r14
     290:	ff 92       	push	r15
     292:	4b 01       	movw	r8, r22
     294:	5c 01       	movw	r10, r24
 int32s_t i;
 if(value<0)
     296:	99 23       	and	r25, r25
     298:	54 f4       	brge	.+20     	; 0x2ae <lcd_itostr+0x34>
 {
  lcd_putc('-');
     29a:	8d e2       	ldi	r24, 0x2D	; 45
     29c:	c2 df       	rcall	.-124    	; 0x222 <lcd_putc>
  value=-value;
     29e:	b0 94       	com	r11
     2a0:	a0 94       	com	r10
     2a2:	90 94       	com	r9
     2a4:	80 94       	com	r8
     2a6:	81 1c       	adc	r8, r1
     2a8:	91 1c       	adc	r9, r1
     2aa:	a1 1c       	adc	r10, r1
     2ac:	b1 1c       	adc	r11, r1
 }
 for(i=1;(value/i)>9;i*=10);
     2ae:	8a e0       	ldi	r24, 0x0A	; 10
     2b0:	88 16       	cp	r8, r24
     2b2:	91 04       	cpc	r9, r1
     2b4:	a1 04       	cpc	r10, r1
     2b6:	b1 04       	cpc	r11, r1
     2b8:	0c f4       	brge	.+2      	; 0x2bc <lcd_itostr+0x42>
     2ba:	64 c0       	rjmp	.+200    	; 0x384 <lcd_itostr+0x10a>
     2bc:	c1 2c       	mov	r12, r1
     2be:	d1 2c       	mov	r13, r1
     2c0:	76 01       	movw	r14, r12
     2c2:	c3 94       	inc	r12
     2c4:	cc 0c       	add	r12, r12
     2c6:	dd 1c       	adc	r13, r13
     2c8:	ee 1c       	adc	r14, r14
     2ca:	ff 1c       	adc	r15, r15
     2cc:	d7 01       	movw	r26, r14
     2ce:	c6 01       	movw	r24, r12
     2d0:	88 0f       	add	r24, r24
     2d2:	99 1f       	adc	r25, r25
     2d4:	aa 1f       	adc	r26, r26
     2d6:	bb 1f       	adc	r27, r27
     2d8:	88 0f       	add	r24, r24
     2da:	99 1f       	adc	r25, r25
     2dc:	aa 1f       	adc	r26, r26
     2de:	bb 1f       	adc	r27, r27
     2e0:	c8 0e       	add	r12, r24
     2e2:	d9 1e       	adc	r13, r25
     2e4:	ea 1e       	adc	r14, r26
     2e6:	fb 1e       	adc	r15, r27
     2e8:	c5 01       	movw	r24, r10
     2ea:	b4 01       	movw	r22, r8
     2ec:	a7 01       	movw	r20, r14
     2ee:	96 01       	movw	r18, r12
     2f0:	30 da       	rcall	.-2976   	; 0xfffff752 <__eeprom_end+0xff7ef748>
     2f2:	2a 30       	cpi	r18, 0x0A	; 10
     2f4:	31 05       	cpc	r19, r1
     2f6:	41 05       	cpc	r20, r1
     2f8:	51 05       	cpc	r21, r1
     2fa:	24 f7       	brge	.-56     	; 0x2c4 <lcd_itostr+0x4a>
 lcd_putc(value/i+'0');
     2fc:	80 e3       	ldi	r24, 0x30	; 48
     2fe:	82 0f       	add	r24, r18
     300:	90 df       	rcall	.-224    	; 0x222 <lcd_putc>
 i/=10;
     302:	c7 01       	movw	r24, r14
     304:	b6 01       	movw	r22, r12
     306:	2a e0       	ldi	r18, 0x0A	; 10
     308:	30 e0       	ldi	r19, 0x00	; 0
     30a:	40 e0       	ldi	r20, 0x00	; 0
     30c:	50 e0       	ldi	r21, 0x00	; 0
     30e:	21 da       	rcall	.-3006   	; 0xfffff752 <__eeprom_end+0xff7ef748>
     310:	69 01       	movw	r12, r18
     312:	7a 01       	movw	r14, r20
 while(i)
     314:	21 15       	cp	r18, r1
     316:	31 05       	cpc	r19, r1
     318:	41 05       	cpc	r20, r1
     31a:	51 05       	cpc	r21, r1
     31c:	b1 f1       	breq	.+108    	; 0x38a <lcd_itostr+0x110>
 {
  lcd_putc((value%(i*10))/i+'0');
  i/=10;
     31e:	0f 2e       	mov	r0, r31
     320:	fa e0       	ldi	r31, 0x0A	; 10
     322:	4f 2e       	mov	r4, r31
     324:	51 2c       	mov	r5, r1
     326:	61 2c       	mov	r6, r1
     328:	71 2c       	mov	r7, r1
     32a:	f0 2d       	mov	r31, r0
 for(i=1;(value/i)>9;i*=10);
 lcd_putc(value/i+'0');
 i/=10;
 while(i)
 {
  lcd_putc((value%(i*10))/i+'0');
     32c:	d7 01       	movw	r26, r14
     32e:	c6 01       	movw	r24, r12
     330:	88 0f       	add	r24, r24
     332:	99 1f       	adc	r25, r25
     334:	aa 1f       	adc	r26, r26
     336:	bb 1f       	adc	r27, r27
     338:	ac 01       	movw	r20, r24
     33a:	bd 01       	movw	r22, r26
     33c:	44 0f       	add	r20, r20
     33e:	55 1f       	adc	r21, r21
     340:	66 1f       	adc	r22, r22
     342:	77 1f       	adc	r23, r23
     344:	44 0f       	add	r20, r20
     346:	55 1f       	adc	r21, r21
     348:	66 1f       	adc	r22, r22
     34a:	77 1f       	adc	r23, r23
     34c:	9a 01       	movw	r18, r20
     34e:	ab 01       	movw	r20, r22
     350:	28 0f       	add	r18, r24
     352:	39 1f       	adc	r19, r25
     354:	4a 1f       	adc	r20, r26
     356:	5b 1f       	adc	r21, r27
     358:	c5 01       	movw	r24, r10
     35a:	b4 01       	movw	r22, r8
     35c:	fa d9       	rcall	.-3084   	; 0xfffff752 <__eeprom_end+0xff7ef748>
     35e:	a7 01       	movw	r20, r14
     360:	96 01       	movw	r18, r12
     362:	f7 d9       	rcall	.-3090   	; 0xfffff752 <__eeprom_end+0xff7ef748>
     364:	80 e3       	ldi	r24, 0x30	; 48
     366:	82 0f       	add	r24, r18
     368:	5c df       	rcall	.-328    	; 0x222 <lcd_putc>
  i/=10;
     36a:	c7 01       	movw	r24, r14
     36c:	b6 01       	movw	r22, r12
     36e:	a3 01       	movw	r20, r6
     370:	92 01       	movw	r18, r4
     372:	ef d9       	rcall	.-3106   	; 0xfffff752 <__eeprom_end+0xff7ef748>
     374:	69 01       	movw	r12, r18
     376:	7a 01       	movw	r14, r20
  value=-value;
 }
 for(i=1;(value/i)>9;i*=10);
 lcd_putc(value/i+'0');
 i/=10;
 while(i)
     378:	21 15       	cp	r18, r1
     37a:	31 05       	cpc	r19, r1
     37c:	41 05       	cpc	r20, r1
     37e:	51 05       	cpc	r21, r1
     380:	a9 f6       	brne	.-86     	; 0x32c <lcd_itostr+0xb2>
     382:	03 c0       	rjmp	.+6      	; 0x38a <lcd_itostr+0x110>
 {
  lcd_putc('-');
  value=-value;
 }
 for(i=1;(value/i)>9;i*=10);
 lcd_putc(value/i+'0');
     384:	80 e3       	ldi	r24, 0x30	; 48
     386:	88 0d       	add	r24, r8
     388:	4c df       	rcall	.-360    	; 0x222 <lcd_putc>
 while(i)
 {
  lcd_putc((value%(i*10))/i+'0');
  i/=10;
 }
}
     38a:	ff 90       	pop	r15
     38c:	ef 90       	pop	r14
     38e:	df 90       	pop	r13
     390:	cf 90       	pop	r12
     392:	bf 90       	pop	r11
     394:	af 90       	pop	r10
     396:	9f 90       	pop	r9
     398:	8f 90       	pop	r8
     39a:	7f 90       	pop	r7
     39c:	6f 90       	pop	r6
     39e:	5f 90       	pop	r5
     3a0:	4f 90       	pop	r4
     3a2:	08 95       	ret

000003a4 <lcd_numTOstr>:

//-------------------------------
/* DISPLAY A 4-DIGIT INTEGER NUMER */
//-------------------------------
void lcd_numTOstr(int16u_t value, int8u_t nDigit)
{/* DISPLAY n-DIGIT INTEGER NUMER */
     3a4:	cf 93       	push	r28
     3a6:	df 93       	push	r29
     3a8:	ec 01       	movw	r28, r24
 switch(nDigit)
     3aa:	62 30       	cpi	r22, 0x02	; 2
     3ac:	09 f4       	brne	.+2      	; 0x3b0 <lcd_numTOstr+0xc>
     3ae:	42 c0       	rjmp	.+132    	; 0x434 <lcd_numTOstr+0x90>
     3b0:	20 f4       	brcc	.+8      	; 0x3ba <lcd_numTOstr+0x16>
     3b2:	61 30       	cpi	r22, 0x01	; 1
     3b4:	09 f4       	brne	.+2      	; 0x3b8 <lcd_numTOstr+0x14>
     3b6:	62 c0       	rjmp	.+196    	; 0x47c <__stack+0x1d>
     3b8:	7c c0       	rjmp	.+248    	; 0x4b2 <__stack+0x53>
     3ba:	63 30       	cpi	r22, 0x03	; 3
     3bc:	a9 f0       	breq	.+42     	; 0x3e8 <lcd_numTOstr+0x44>
     3be:	64 30       	cpi	r22, 0x04	; 4
     3c0:	09 f0       	breq	.+2      	; 0x3c4 <lcd_numTOstr+0x20>
     3c2:	77 c0       	rjmp	.+238    	; 0x4b2 <__stack+0x53>
 {
  case 4: lcd_putc((value/1000)+'0');
     3c4:	9c 01       	movw	r18, r24
     3c6:	36 95       	lsr	r19
     3c8:	27 95       	ror	r18
     3ca:	36 95       	lsr	r19
     3cc:	27 95       	ror	r18
     3ce:	36 95       	lsr	r19
     3d0:	27 95       	ror	r18
     3d2:	a5 ec       	ldi	r26, 0xC5	; 197
     3d4:	b0 e2       	ldi	r27, 0x20	; 32
     3d6:	d9 d9       	rcall	.-3150   	; 0xfffff78a <__eeprom_end+0xff7ef780>
     3d8:	92 95       	swap	r25
     3da:	82 95       	swap	r24
     3dc:	8f 70       	andi	r24, 0x0F	; 15
     3de:	89 27       	eor	r24, r25
     3e0:	9f 70       	andi	r25, 0x0F	; 15
     3e2:	89 27       	eor	r24, r25
     3e4:	80 5d       	subi	r24, 0xD0	; 208
     3e6:	1d df       	rcall	.-454    	; 0x222 <lcd_putc>
  case 3: lcd_putc(((value/100)%10)+'0');
     3e8:	9e 01       	movw	r18, r28
     3ea:	36 95       	lsr	r19
     3ec:	27 95       	ror	r18
     3ee:	36 95       	lsr	r19
     3f0:	27 95       	ror	r18
     3f2:	ab e7       	ldi	r26, 0x7B	; 123
     3f4:	b4 e1       	ldi	r27, 0x14	; 20
     3f6:	c9 d9       	rcall	.-3182   	; 0xfffff78a <__eeprom_end+0xff7ef780>
     3f8:	ac 01       	movw	r20, r24
     3fa:	56 95       	lsr	r21
     3fc:	47 95       	ror	r20
     3fe:	9a 01       	movw	r18, r20
     400:	ad ec       	ldi	r26, 0xCD	; 205
     402:	bc ec       	ldi	r27, 0xCC	; 204
     404:	c2 d9       	rcall	.-3196   	; 0xfffff78a <__eeprom_end+0xff7ef780>
     406:	96 95       	lsr	r25
     408:	87 95       	ror	r24
     40a:	96 95       	lsr	r25
     40c:	87 95       	ror	r24
     40e:	96 95       	lsr	r25
     410:	87 95       	ror	r24
     412:	9c 01       	movw	r18, r24
     414:	22 0f       	add	r18, r18
     416:	33 1f       	adc	r19, r19
     418:	88 0f       	add	r24, r24
     41a:	99 1f       	adc	r25, r25
     41c:	88 0f       	add	r24, r24
     41e:	99 1f       	adc	r25, r25
     420:	88 0f       	add	r24, r24
     422:	99 1f       	adc	r25, r25
     424:	82 0f       	add	r24, r18
     426:	93 1f       	adc	r25, r19
     428:	9a 01       	movw	r18, r20
     42a:	28 1b       	sub	r18, r24
     42c:	39 0b       	sbc	r19, r25
     42e:	c9 01       	movw	r24, r18
     430:	80 5d       	subi	r24, 0xD0	; 208
     432:	f7 de       	rcall	.-530    	; 0x222 <lcd_putc>
  case 2: lcd_putc(((value/10)%10)+'0');
     434:	9e 01       	movw	r18, r28
     436:	ad ec       	ldi	r26, 0xCD	; 205
     438:	bc ec       	ldi	r27, 0xCC	; 204
     43a:	a7 d9       	rcall	.-3250   	; 0xfffff78a <__eeprom_end+0xff7ef780>
     43c:	ac 01       	movw	r20, r24
     43e:	56 95       	lsr	r21
     440:	47 95       	ror	r20
     442:	56 95       	lsr	r21
     444:	47 95       	ror	r20
     446:	56 95       	lsr	r21
     448:	47 95       	ror	r20
     44a:	9a 01       	movw	r18, r20
     44c:	9e d9       	rcall	.-3268   	; 0xfffff78a <__eeprom_end+0xff7ef780>
     44e:	96 95       	lsr	r25
     450:	87 95       	ror	r24
     452:	96 95       	lsr	r25
     454:	87 95       	ror	r24
     456:	96 95       	lsr	r25
     458:	87 95       	ror	r24
     45a:	9c 01       	movw	r18, r24
     45c:	22 0f       	add	r18, r18
     45e:	33 1f       	adc	r19, r19
     460:	88 0f       	add	r24, r24
     462:	99 1f       	adc	r25, r25
     464:	88 0f       	add	r24, r24
     466:	99 1f       	adc	r25, r25
     468:	88 0f       	add	r24, r24
     46a:	99 1f       	adc	r25, r25
     46c:	82 0f       	add	r24, r18
     46e:	93 1f       	adc	r25, r19
     470:	9a 01       	movw	r18, r20
     472:	28 1b       	sub	r18, r24
     474:	39 0b       	sbc	r19, r25
     476:	c9 01       	movw	r24, r18
     478:	80 5d       	subi	r24, 0xD0	; 208
     47a:	d3 de       	rcall	.-602    	; 0x222 <lcd_putc>
  case 1: lcd_putc((value%10)+'0');
     47c:	9e 01       	movw	r18, r28
     47e:	ad ec       	ldi	r26, 0xCD	; 205
     480:	bc ec       	ldi	r27, 0xCC	; 204
     482:	83 d9       	rcall	.-3322   	; 0xfffff78a <__eeprom_end+0xff7ef780>
     484:	96 95       	lsr	r25
     486:	87 95       	ror	r24
     488:	96 95       	lsr	r25
     48a:	87 95       	ror	r24
     48c:	96 95       	lsr	r25
     48e:	87 95       	ror	r24
     490:	9c 01       	movw	r18, r24
     492:	22 0f       	add	r18, r18
     494:	33 1f       	adc	r19, r19
     496:	88 0f       	add	r24, r24
     498:	99 1f       	adc	r25, r25
     49a:	88 0f       	add	r24, r24
     49c:	99 1f       	adc	r25, r25
     49e:	88 0f       	add	r24, r24
     4a0:	99 1f       	adc	r25, r25
     4a2:	82 0f       	add	r24, r18
     4a4:	93 1f       	adc	r25, r19
     4a6:	9e 01       	movw	r18, r28
     4a8:	28 1b       	sub	r18, r24
     4aa:	39 0b       	sbc	r19, r25
     4ac:	c9 01       	movw	r24, r18
     4ae:	80 5d       	subi	r24, 0xD0	; 208
     4b0:	b8 de       	rcall	.-656    	; 0x222 <lcd_putc>
 }
}
     4b2:	df 91       	pop	r29
     4b4:	cf 91       	pop	r28
     4b6:	08 95       	ret

000004b8 <lcd_readybar>:
#if ( USE_PROGRESS_BAR )
//-------------------------------
/* PRELOAD PROGRESS BAR ELEMENTS IN CGRAM */
//-------------------------------
void lcd_readybar(void)
{
     4b8:	ff 92       	push	r15
     4ba:	0f 93       	push	r16
     4bc:	1f 93       	push	r17
     4be:	cf 93       	push	r28
     4c0:	df 93       	push	r29
     4c2:	c4 ea       	ldi	r28, 0xA4	; 164
     4c4:	d0 e0       	ldi	r29, 0x00	; 0
     4c6:	00 e0       	ldi	r16, 0x00	; 0
 int8u_t i,j;
 for(i=0;i<NUMBER_OF_CELL_ELEMENTS;i++)
 {
  lcd_goto(CGRAM,(i*DRAW_CHAR_SIZE));
     4c8:	68 94       	set
     4ca:	ff 24       	eor	r15, r15
     4cc:	f3 f8       	bld	r15, 3
     4ce:	60 2f       	mov	r22, r16
     4d0:	85 e0       	ldi	r24, 0x05	; 5
     4d2:	64 de       	rcall	.-824    	; 0x19c <lcd_goto>
     4d4:	1f 2d       	mov	r17, r15
  for(j=0;j<PROGRESS_BAR_HEIGHT;j++)
   lcd_putc(progress_bar[i]);
     4d6:	88 81       	ld	r24, Y
     4d8:	a4 de       	rcall	.-696    	; 0x222 <lcd_putc>
     4da:	11 50       	subi	r17, 0x01	; 1
{
 int8u_t i,j;
 for(i=0;i<NUMBER_OF_CELL_ELEMENTS;i++)
 {
  lcd_goto(CGRAM,(i*DRAW_CHAR_SIZE));
  for(j=0;j<PROGRESS_BAR_HEIGHT;j++)
     4dc:	e1 f7       	brne	.-8      	; 0x4d6 <lcd_readybar+0x1e>
     4de:	08 5f       	subi	r16, 0xF8	; 248
     4e0:	21 96       	adiw	r28, 0x01	; 1
/* PRELOAD PROGRESS BAR ELEMENTS IN CGRAM */
//-------------------------------
void lcd_readybar(void)
{
 int8u_t i,j;
 for(i=0;i<NUMBER_OF_CELL_ELEMENTS;i++)
     4e2:	00 33       	cpi	r16, 0x30	; 48
     4e4:	a1 f7       	brne	.-24     	; 0x4ce <lcd_readybar+0x16>
 {
  lcd_goto(CGRAM,(i*DRAW_CHAR_SIZE));
  for(j=0;j<PROGRESS_BAR_HEIGHT;j++)
   lcd_putc(progress_bar[i]);
 }
 lcd_goto(1,0);
     4e6:	60 e0       	ldi	r22, 0x00	; 0
     4e8:	81 e0       	ldi	r24, 0x01	; 1
     4ea:	58 de       	rcall	.-848    	; 0x19c <lcd_goto>
}
     4ec:	df 91       	pop	r29
     4ee:	cf 91       	pop	r28
     4f0:	1f 91       	pop	r17
     4f2:	0f 91       	pop	r16
     4f4:	ff 90       	pop	r15
     4f6:	08 95       	ret

000004f8 <lcd_drawbar>:

//-------------------------------
/* DRAW PROGRESS BAR ON DDRAM */
//-------------------------------
void lcd_drawbar(int8u_t next_bar_load)
{
     4f8:	0f 93       	push	r16
     4fa:	1f 93       	push	r17
     4fc:	cf 93       	push	r28
     4fe:	df 93       	push	r29
 int8u_t i = current_bar_load;
     500:	c0 91 62 01 	lds	r28, 0x0162
 int8u_t cell = (current_bar_load/FULL_ELEMENT); // find current cell position in progress bar
     504:	6d ec       	ldi	r22, 0xCD	; 205
     506:	c6 9f       	mul	r28, r22
     508:	61 2d       	mov	r22, r1
     50a:	11 24       	eor	r1, r1
     50c:	66 95       	lsr	r22
     50e:	66 95       	lsr	r22
     510:	18 2f       	mov	r17, r24
     512:	81 35       	cpi	r24, 0x51	; 81
     514:	08 f0       	brcs	.+2      	; 0x518 <lcd_drawbar+0x20>
     516:	10 e5       	ldi	r17, 0x50	; 80
 if(next_bar_load > NUMBER_OF_BAR_ELEMENTS ) next_bar_load = NUMBER_OF_BAR_ELEMENTS;
 if( next_bar_load > current_bar_load )
     518:	c1 17       	cp	r28, r17
     51a:	d0 f4       	brcc	.+52     	; 0x550 <lcd_drawbar+0x58>
 {
//-------------------------------
// increment progress bar code //
//-------------------------------
  lcd_goto(DRAW_PROGRESS_BAR_ON_LINE, cell); // goto current cell position
     51c:	82 e0       	ldi	r24, 0x02	; 2
     51e:	3e de       	rcall	.-900    	; 0x19c <lcd_goto>
  while( i != next_bar_load )
  {
   i++;
   if( CELL_RATIO(i) == 0 ) lcd_putc( FULL_ELEMENT );
     520:	dd ec       	ldi	r29, 0xCD	; 205
// increment progress bar code //
//-------------------------------
  lcd_goto(DRAW_PROGRESS_BAR_ON_LINE, cell); // goto current cell position
  while( i != next_bar_load )
  {
   i++;
     522:	cf 5f       	subi	r28, 0xFF	; 255
   if( CELL_RATIO(i) == 0 ) lcd_putc( FULL_ELEMENT );
     524:	cd 9f       	mul	r28, r29
     526:	81 2d       	mov	r24, r1
     528:	11 24       	eor	r1, r1
     52a:	86 95       	lsr	r24
     52c:	86 95       	lsr	r24
     52e:	98 2f       	mov	r25, r24
     530:	99 0f       	add	r25, r25
     532:	99 0f       	add	r25, r25
     534:	89 0f       	add	r24, r25
     536:	9c 2f       	mov	r25, r28
     538:	98 1b       	sub	r25, r24
     53a:	89 2f       	mov	r24, r25
     53c:	19 f4       	brne	.+6      	; 0x544 <lcd_drawbar+0x4c>
     53e:	85 e0       	ldi	r24, 0x05	; 5
     540:	70 de       	rcall	.-800    	; 0x222 <lcd_putc>
     542:	03 c0       	rjmp	.+6      	; 0x54a <lcd_drawbar+0x52>
    else lcd_putc( CELL_RATIO(i) );
     544:	6e de       	rcall	.-804    	; 0x222 <lcd_putc>
   if( CELL_RATIO(i) ) cursor_shift(LEFT);
     546:	8c e3       	ldi	r24, 0x3C	; 60
     548:	8a de       	rcall	.-748    	; 0x25e <cursor_shift>
 {
//-------------------------------
// increment progress bar code //
//-------------------------------
  lcd_goto(DRAW_PROGRESS_BAR_ON_LINE, cell); // goto current cell position
  while( i != next_bar_load )
     54a:	c1 13       	cpse	r28, r17
     54c:	ea cf       	rjmp	.-44     	; 0x522 <lcd_drawbar+0x2a>
     54e:	2e c0       	rjmp	.+92     	; 0x5ac <lcd_drawbar+0xb4>
 else
 {
//-------------------------------
// decrement progress bar code //
//-------------------------------
  if(CELL_RATIO(i) == 0) cell--;
     550:	8d ec       	ldi	r24, 0xCD	; 205
     552:	c8 9f       	mul	r28, r24
     554:	81 2d       	mov	r24, r1
     556:	11 24       	eor	r1, r1
     558:	86 95       	lsr	r24
     55a:	86 95       	lsr	r24
     55c:	98 2f       	mov	r25, r24
     55e:	99 0f       	add	r25, r25
     560:	99 0f       	add	r25, r25
     562:	89 0f       	add	r24, r25
     564:	c8 13       	cpse	r28, r24
     566:	01 c0       	rjmp	.+2      	; 0x56a <lcd_drawbar+0x72>
     568:	61 50       	subi	r22, 0x01	; 1
  lcd_goto(DRAW_PROGRESS_BAR_ON_LINE, cell); // goto current cell position
     56a:	82 e0       	ldi	r24, 0x02	; 2
     56c:	17 de       	rcall	.-978    	; 0x19c <lcd_goto>
  lcd_cmd(ENTRY_MODE_DEC_NO_SHIFT,0); // decrement lcd cursor
     56e:	60 e0       	ldi	r22, 0x00	; 0
     570:	70 e0       	ldi	r23, 0x00	; 0
     572:	84 e0       	ldi	r24, 0x04	; 4
     574:	f8 dd       	rcall	.-1040   	; 0x166 <lcd_cmd>
  while( i != next_bar_load )
     576:	c1 17       	cp	r28, r17
     578:	a9 f0       	breq	.+42     	; 0x5a4 <lcd_drawbar+0xac>
  {
   i--;
   lcd_putc( CELL_RATIO(i) );
     57a:	0d ec       	ldi	r16, 0xCD	; 205
  if(CELL_RATIO(i) == 0) cell--;
  lcd_goto(DRAW_PROGRESS_BAR_ON_LINE, cell); // goto current cell position
  lcd_cmd(ENTRY_MODE_DEC_NO_SHIFT,0); // decrement lcd cursor
  while( i != next_bar_load )
  {
   i--;
     57c:	c1 50       	subi	r28, 0x01	; 1
   lcd_putc( CELL_RATIO(i) );
     57e:	c0 9f       	mul	r28, r16
     580:	d1 2d       	mov	r29, r1
     582:	11 24       	eor	r1, r1
     584:	d6 95       	lsr	r29
     586:	d6 95       	lsr	r29
     588:	8d 2f       	mov	r24, r29
     58a:	88 0f       	add	r24, r24
     58c:	88 0f       	add	r24, r24
     58e:	d8 0f       	add	r29, r24
     590:	8c 2f       	mov	r24, r28
     592:	8d 1b       	sub	r24, r29
     594:	d8 2f       	mov	r29, r24
     596:	45 de       	rcall	.-886    	; 0x222 <lcd_putc>
   if( CELL_RATIO(i) ) cursor_shift(RIGHT);
     598:	dd 23       	and	r29, r29
     59a:	11 f0       	breq	.+4      	; 0x5a0 <lcd_drawbar+0xa8>
     59c:	8e e3       	ldi	r24, 0x3E	; 62
     59e:	5f de       	rcall	.-834    	; 0x25e <cursor_shift>
// decrement progress bar code //
//-------------------------------
  if(CELL_RATIO(i) == 0) cell--;
  lcd_goto(DRAW_PROGRESS_BAR_ON_LINE, cell); // goto current cell position
  lcd_cmd(ENTRY_MODE_DEC_NO_SHIFT,0); // decrement lcd cursor
  while( i != next_bar_load )
     5a0:	c1 13       	cpse	r28, r17
     5a2:	ec cf       	rjmp	.-40     	; 0x57c <lcd_drawbar+0x84>
  {
   i--;
   lcd_putc( CELL_RATIO(i) );
   if( CELL_RATIO(i) ) cursor_shift(RIGHT);
  }
  lcd_cmd(ENTRY_MODE_INC_NO_SHIFT,0); // increment lcd cursor
     5a4:	60 e0       	ldi	r22, 0x00	; 0
     5a6:	70 e0       	ldi	r23, 0x00	; 0
     5a8:	86 e0       	ldi	r24, 0x06	; 6
     5aa:	dd dd       	rcall	.-1094   	; 0x166 <lcd_cmd>
 }
//-------------------------------
//       store new value       //
//-------------------------------
 current_bar_load = next_bar_load;
     5ac:	10 93 62 01 	sts	0x0162, r17
}
     5b0:	df 91       	pop	r29
     5b2:	cf 91       	pop	r28
     5b4:	1f 91       	pop	r17
     5b6:	0f 91       	pop	r16
     5b8:	08 95       	ret

000005ba <lcd_config>:

//-------------------------------
/* CONFIGURE 4-BIT DISPLAY INTERFACE */
//-------------------------------
void lcd_config(int8u_t param)
{/* CONFIGURE THE DISPLAY */
     5ba:	cf 93       	push	r28
     5bc:	c8 2f       	mov	r28, r24
 HIGHBITS(param); // 4-bit, two lines, 5x8 pixel
     5be:	a9 dd       	rcall	.-1198   	; 0x112 <HIGHBITS>
  LCD_STROBE(0); // change 8-bit interface to 4-bit interface
     5c0:	80 e0       	ldi	r24, 0x00	; 0
     5c2:	90 e0       	ldi	r25, 0x00	; 0
     5c4:	99 dd       	rcall	.-1230   	; 0xf8 <LCD_STROBE>
  LCD_STROBE(0); // init 4-bit interface
     5c6:	80 e0       	ldi	r24, 0x00	; 0
     5c8:	90 e0       	ldi	r25, 0x00	; 0
     5ca:	96 dd       	rcall	.-1236   	; 0xf8 <LCD_STROBE>
 LOWBITS(param);
     5cc:	8c 2f       	mov	r24, r28
     5ce:	b6 dd       	rcall	.-1172   	; 0x13c <LOWBITS>
  LCD_STROBE(0);
     5d0:	80 e0       	ldi	r24, 0x00	; 0
     5d2:	90 e0       	ldi	r25, 0x00	; 0
     5d4:	91 dd       	rcall	.-1246   	; 0xf8 <LCD_STROBE>
}
     5d6:	cf 91       	pop	r28
     5d8:	08 95       	ret

000005da <lcd_init>:
//-------------------------------
/* INITIALIZE ENTIRE DISPLAY */
//-------------------------------
void lcd_init(void)
{
 lcd_config(DEFAULT_DISPLAY_CONFIG); // 1, Data Lenght, Number of lines, character font
     5da:	8c e2       	ldi	r24, 0x2C	; 44
     5dc:	ee df       	rcall	.-36     	; 0x5ba <lcd_config>
 lcd_cmd(DEFAULT_DISPLAY_CONTROL,0); // 1, lcd, cursor, blink
     5de:	60 e0       	ldi	r22, 0x00	; 0
     5e0:	70 e0       	ldi	r23, 0x00	; 0
     5e2:	8c e0       	ldi	r24, 0x0C	; 12
     5e4:	c0 dd       	rcall	.-1152   	; 0x166 <lcd_cmd>
 lcd_cmd(DEFAULT_ENTRY_MODE,0); // 1,increment/decrement,display shift on/off 
     5e6:	60 e0       	ldi	r22, 0x00	; 0
     5e8:	70 e0       	ldi	r23, 0x00	; 0
     5ea:	86 e0       	ldi	r24, 0x06	; 6
     5ec:	bc dd       	rcall	.-1160   	; 0x166 <lcd_cmd>
 lcd_cmd(0x01,2); // clear display
     5ee:	62 e0       	ldi	r22, 0x02	; 2
     5f0:	70 e0       	ldi	r23, 0x00	; 0
     5f2:	81 e0       	ldi	r24, 0x01	; 1
     5f4:	b8 dd       	rcall	.-1168   	; 0x166 <lcd_cmd>
 lcd_cmd(0x02,2); // 1, return home cursor
     5f6:	62 e0       	ldi	r22, 0x02	; 2
     5f8:	70 e0       	ldi	r23, 0x00	; 0
     5fa:	82 e0       	ldi	r24, 0x02	; 2
     5fc:	b4 dd       	rcall	.-1176   	; 0x166 <lcd_cmd>
#if (USE_PROGRESS_BAR)
 lcd_readybar();
     5fe:	5c df       	rcall	.-328    	; 0x4b8 <lcd_readybar>
     600:	08 95       	ret

00000602 <OWI_ComputeCRC8>:
 *  \note   Constantly passing the return value of this function 
 *          As the seed argument computes the CRC8 value of a
 *          longer string of data.
 */
unsigned char OWI_ComputeCRC8(unsigned char inData, unsigned char seed)
{
     602:	98 e0       	ldi	r25, 0x08	; 8
        {
            seed >>= 1;
        }
        else
        {
            seed ^= 0x18;
     604:	38 e1       	ldi	r19, 0x18	; 24
    unsigned char bitsLeft;
    unsigned char temp;

    for (bitsLeft = 8; bitsLeft > 0; bitsLeft--)
    {
        temp = ((seed ^ inData) & 0x01);
     606:	26 2f       	mov	r18, r22
     608:	28 27       	eor	r18, r24
        if (temp == 0)
     60a:	20 fd       	sbrc	r18, 0
     60c:	02 c0       	rjmp	.+4      	; 0x612 <OWI_ComputeCRC8+0x10>
        {
            seed >>= 1;
     60e:	66 95       	lsr	r22
     610:	03 c0       	rjmp	.+6      	; 0x618 <OWI_ComputeCRC8+0x16>
        }
        else
        {
            seed ^= 0x18;
     612:	63 27       	eor	r22, r19
            seed >>= 1;
     614:	66 95       	lsr	r22
            seed |= 0x80;
     616:	60 68       	ori	r22, 0x80	; 128
        }
        inData >>= 1;
     618:	86 95       	lsr	r24
     61a:	91 50       	subi	r25, 0x01	; 1
unsigned char OWI_ComputeCRC8(unsigned char inData, unsigned char seed)
{
    unsigned char bitsLeft;
    unsigned char temp;

    for (bitsLeft = 8; bitsLeft > 0; bitsLeft--)
     61c:	a1 f7       	brne	.-24     	; 0x606 <OWI_ComputeCRC8+0x4>
            seed |= 0x80;
        }
        inData >>= 1;
    }
    return seed;    
}
     61e:	86 2f       	mov	r24, r22
     620:	08 95       	ret

00000622 <OWI_CheckRomCRC>:
 *
 *  \retval OWI_CRC_OK      The CRC's matched.
 *  \retval OWI_CRC_ERROR   There was a discrepancy between the calculated and the stored CRC.
 */
unsigned char OWI_CheckRomCRC(unsigned char * romValue)
{
     622:	ef 92       	push	r14
     624:	ff 92       	push	r15
     626:	0f 93       	push	r16
     628:	1f 93       	push	r17
     62a:	cf 93       	push	r28
     62c:	df 93       	push	r29
     62e:	7c 01       	movw	r14, r24
     630:	8c 01       	movw	r16, r24
     632:	09 5f       	subi	r16, 0xF9	; 249
     634:	1f 4f       	sbci	r17, 0xFF	; 255
     636:	ec 01       	movw	r28, r24
    unsigned char i;
    unsigned char crc8 = 0;
     638:	60 e0       	ldi	r22, 0x00	; 0
    
    for (i = 0; i < 7; i++)
    {
        crc8 = OWI_ComputeCRC8(*romValue, crc8);
     63a:	89 91       	ld	r24, Y+
     63c:	e2 df       	rcall	.-60     	; 0x602 <OWI_ComputeCRC8>
     63e:	68 2f       	mov	r22, r24
unsigned char OWI_CheckRomCRC(unsigned char * romValue)
{
    unsigned char i;
    unsigned char crc8 = 0;
    
    for (i = 0; i < 7; i++)
     640:	c0 17       	cp	r28, r16
     642:	d1 07       	cpc	r29, r17
     644:	d1 f7       	brne	.-12     	; 0x63a <OWI_CheckRomCRC+0x18>
    {
        crc8 = OWI_ComputeCRC8(*romValue, crc8);
        romValue++;
    }
    if (crc8 == (*romValue))
     646:	81 e0       	ldi	r24, 0x01	; 1
     648:	f7 01       	movw	r30, r14
     64a:	97 81       	ldd	r25, Z+7	; 0x07
     64c:	69 13       	cpse	r22, r25
     64e:	01 c0       	rjmp	.+2      	; 0x652 <OWI_CheckRomCRC+0x30>
     650:	80 e0       	ldi	r24, 0x00	; 0
    {
        return OWI_CRC_OK;
    }
    return OWI_CRC_ERROR;
}
     652:	df 91       	pop	r29
     654:	cf 91       	pop	r28
     656:	1f 91       	pop	r17
     658:	0f 91       	pop	r16
     65a:	ff 90       	pop	r15
     65c:	ef 90       	pop	r14
     65e:	08 95       	ret

00000660 <OWI_CheckScratchPadCRC>:

unsigned char OWI_CheckScratchPadCRC(unsigned char * scratchpad)
{
     660:	ef 92       	push	r14
     662:	ff 92       	push	r15
     664:	0f 93       	push	r16
     666:	1f 93       	push	r17
     668:	cf 93       	push	r28
     66a:	df 93       	push	r29
     66c:	7c 01       	movw	r14, r24
     66e:	8c 01       	movw	r16, r24
     670:	08 5f       	subi	r16, 0xF8	; 248
     672:	1f 4f       	sbci	r17, 0xFF	; 255
     674:	ec 01       	movw	r28, r24
    unsigned char i;
    unsigned char crc8 = 0;
     676:	60 e0       	ldi	r22, 0x00	; 0
    
    for (i = 0; i < 8; i++)
    {
        crc8 = OWI_ComputeCRC8(*scratchpad, crc8);
     678:	89 91       	ld	r24, Y+
     67a:	c3 df       	rcall	.-122    	; 0x602 <OWI_ComputeCRC8>
     67c:	68 2f       	mov	r22, r24
unsigned char OWI_CheckScratchPadCRC(unsigned char * scratchpad)
{
    unsigned char i;
    unsigned char crc8 = 0;
    
    for (i = 0; i < 8; i++)
     67e:	c0 17       	cp	r28, r16
     680:	d1 07       	cpc	r29, r17
     682:	d1 f7       	brne	.-12     	; 0x678 <OWI_CheckScratchPadCRC+0x18>
    {
        crc8 = OWI_ComputeCRC8(*scratchpad, crc8);
        scratchpad++;
    }
    if (crc8 == (*scratchpad))
     684:	81 e0       	ldi	r24, 0x01	; 1
     686:	f7 01       	movw	r30, r14
     688:	90 85       	ldd	r25, Z+8	; 0x08
     68a:	69 13       	cpse	r22, r25
     68c:	01 c0       	rjmp	.+2      	; 0x690 <OWI_CheckScratchPadCRC+0x30>
     68e:	80 e0       	ldi	r24, 0x00	; 0
    {
        return OWI_CRC_OK;
    }
    return OWI_CRC_ERROR;
     690:	df 91       	pop	r29
     692:	cf 91       	pop	r28
     694:	1f 91       	pop	r17
     696:	0f 91       	pop	r16
     698:	ff 90       	pop	r15
     69a:	ef 90       	pop	r14
     69c:	08 95       	ret

0000069e <OWI_SendByte>:
 *  \param  data    The data to send on the bus(es).
 *  
 *  \param  pins    A bitmask of the buses to send the data to.
 */
void OWI_SendByte(unsigned char data, unsigned char pin)
{
     69e:	1f 93       	push	r17
     6a0:	cf 93       	push	r28
     6a2:	df 93       	push	r29
     6a4:	d8 2f       	mov	r29, r24
     6a6:	16 2f       	mov	r17, r22
     6a8:	c8 e0       	ldi	r28, 0x08	; 8
    for (i = 0; i < 8; i++)
    {
        // Determine if lsb is '0' or '1' and transmit corresponding
        // waveform on the bus.
        temp = data & 0x01;
        if (temp)
     6aa:	d0 ff       	sbrs	r29, 0
     6ac:	03 c0       	rjmp	.+6      	; 0x6b4 <OWI_SendByte+0x16>
        {
            OWI_WriteBit1(pin);
     6ae:	81 2f       	mov	r24, r17
     6b0:	0c d1       	rcall	.+536    	; 0x8ca <OWI_WriteBit1>
     6b2:	02 c0       	rjmp	.+4      	; 0x6b8 <OWI_SendByte+0x1a>
        }
        else
        {
            OWI_WriteBit0(pin);
     6b4:	81 2f       	mov	r24, r17
     6b6:	23 d1       	rcall	.+582    	; 0x8fe <OWI_WriteBit0>
        }
        // Right shift the data to get next bit.
        data >>= 1;
     6b8:	d6 95       	lsr	r29
     6ba:	c1 50       	subi	r28, 0x01	; 1
{
    unsigned char temp;
    unsigned char i;
    
    // Do once for each bit
    for (i = 0; i < 8; i++)
     6bc:	b1 f7       	brne	.-20     	; 0x6aa <OWI_SendByte+0xc>
            OWI_WriteBit0(pin);
        }
        // Right shift the data to get next bit.
        data >>= 1;
    }
}
     6be:	df 91       	pop	r29
     6c0:	cf 91       	pop	r28
     6c2:	1f 91       	pop	r17
     6c4:	08 95       	ret

000006c6 <OWI_ReceiveByte>:
 *  \param  pin     A bitmask of the bus to read from.
 *  
 *  \return     The byte read from the bus.
 */
unsigned char OWI_ReceiveByte(unsigned char pin)
{
     6c6:	1f 93       	push	r17
     6c8:	cf 93       	push	r28
     6ca:	df 93       	push	r29
     6cc:	18 2f       	mov	r17, r24
     6ce:	d8 e0       	ldi	r29, 0x08	; 8
    unsigned char data;
    unsigned char i;

    // Clear the temporary input variable.
    data = 0x00;
     6d0:	c0 e0       	ldi	r28, 0x00	; 0
    
    // Do once for each bit
    for (i = 0; i < 8; i++)
    {
        // Shift temporary input variable right.
        data >>= 1;
     6d2:	c6 95       	lsr	r28
        // Set the msb if a '1' value is read from the bus.
        // Leave as it is ('0') else.
        if (OWI_ReadBit(pin))
     6d4:	81 2f       	mov	r24, r17
     6d6:	2d d1       	rcall	.+602    	; 0x932 <OWI_ReadBit>
     6d8:	81 11       	cpse	r24, r1
        {
            // Set msb
            data |= 0x80;
     6da:	c0 68       	ori	r28, 0x80	; 128
     6dc:	d1 50       	subi	r29, 0x01	; 1

    // Clear the temporary input variable.
    data = 0x00;
    
    // Do once for each bit
    for (i = 0; i < 8; i++)
     6de:	c9 f7       	brne	.-14     	; 0x6d2 <OWI_ReceiveByte+0xc>
            // Set msb
            data |= 0x80;
        }
    }
    return data;
}
     6e0:	8c 2f       	mov	r24, r28
     6e2:	df 91       	pop	r29
     6e4:	cf 91       	pop	r28
     6e6:	1f 91       	pop	r17
     6e8:	08 95       	ret

000006ea <OWI_MatchRom>:
 *  \param  romValue    A pointer to the ID to match against.
 *
 *  \param  pins    A bitmask of the buses to perform the MATCH ROM command on.
 */
void OWI_MatchRom(unsigned char * romValue, unsigned char pin)
{
     6ea:	ff 92       	push	r15
     6ec:	0f 93       	push	r16
     6ee:	1f 93       	push	r17
     6f0:	cf 93       	push	r28
     6f2:	df 93       	push	r29
     6f4:	8c 01       	movw	r16, r24
     6f6:	f6 2e       	mov	r15, r22
    unsigned char bytesLeft = 8;   
    
    // Send the MATCH ROM command.
    OWI_SendByte(OWI_ROM_MATCH, pin);
     6f8:	85 e5       	ldi	r24, 0x55	; 85
     6fa:	d1 df       	rcall	.-94     	; 0x69e <OWI_SendByte>
     6fc:	e8 01       	movw	r28, r16
     6fe:	08 5f       	subi	r16, 0xF8	; 248
     700:	1f 4f       	sbci	r17, 0xFF	; 255

    // Do once for each byte.
    while (bytesLeft > 0)
    {
        // Transmit 1 byte of the ID to match.
        OWI_SendByte(*romValue++, pin);
     702:	6f 2d       	mov	r22, r15
     704:	89 91       	ld	r24, Y+
     706:	cb df       	rcall	.-106    	; 0x69e <OWI_SendByte>
    
    // Send the MATCH ROM command.
    OWI_SendByte(OWI_ROM_MATCH, pin);

    // Do once for each byte.
    while (bytesLeft > 0)
     708:	c0 17       	cp	r28, r16
     70a:	d1 07       	cpc	r29, r17
     70c:	d1 f7       	brne	.-12     	; 0x702 <OWI_MatchRom+0x18>
    {
        // Transmit 1 byte of the ID to match.
        OWI_SendByte(*romValue++, pin);
        bytesLeft--;
    }
}
     70e:	df 91       	pop	r29
     710:	cf 91       	pop	r28
     712:	1f 91       	pop	r17
     714:	0f 91       	pop	r16
     716:	ff 90       	pop	r15
     718:	08 95       	ret

0000071a <OWI_SearchRom>:
 *  \return The last bit position where there was a discrepancy between slave addresses the last time this function was run. Returns OWI_ROM_SEARCH_FAILED if an error was detected (e.g. a device was connected to the bus during the search), or OWI_ROM_SEARCH_FINISHED when there are no more devices to be discovered.
 *
 *  \note   See main.c for an example of how to utilize this function.
 */
unsigned char OWI_SearchRom(unsigned char * bitPattern, unsigned char lastDeviation, unsigned char pin)
{
     71a:	bf 92       	push	r11
     71c:	cf 92       	push	r12
     71e:	df 92       	push	r13
     720:	ef 92       	push	r14
     722:	ff 92       	push	r15
     724:	0f 93       	push	r16
     726:	1f 93       	push	r17
     728:	cf 93       	push	r28
     72a:	df 93       	push	r29
     72c:	ec 01       	movw	r28, r24
     72e:	d6 2e       	mov	r13, r22
     730:	f4 2e       	mov	r15, r20
    unsigned char bitMask = 0x01;
    unsigned char bitA;
    unsigned char bitB;

    // Send SEARCH ROM command on the bus.
    OWI_SendByte(OWI_ROM_SEARCH, pin);
     732:	64 2f       	mov	r22, r20
     734:	80 ef       	ldi	r24, 0xF0	; 240
     736:	b3 df       	rcall	.-154    	; 0x69e <OWI_SendByte>
 */
unsigned char OWI_SearchRom(unsigned char * bitPattern, unsigned char lastDeviation, unsigned char pin)
{
    unsigned char currentBit = 1;
    unsigned char newDeviation = 0;
    unsigned char bitMask = 0x01;
     738:	11 e0       	ldi	r17, 0x01	; 1
 *  \note   See main.c for an example of how to utilize this function.
 */
unsigned char OWI_SearchRom(unsigned char * bitPattern, unsigned char lastDeviation, unsigned char pin)
{
    unsigned char currentBit = 1;
    unsigned char newDeviation = 0;
     73a:	b1 2c       	mov	r11, r1
 *
 *  \note   See main.c for an example of how to utilize this function.
 */
unsigned char OWI_SearchRom(unsigned char * bitPattern, unsigned char lastDeviation, unsigned char pin)
{
    unsigned char currentBit = 1;
     73c:	01 e0       	ldi	r16, 0x01	; 1

        // Adjust bitMask and bitPattern pointer.    
        bitMask <<= 1;
        if (!bitMask)
        {
            bitMask = 0x01;
     73e:	cc 24       	eor	r12, r12
     740:	c3 94       	inc	r12
    
    // Walk through all 64 bits.
    while (currentBit <= 64)
    {
        // Read bit from bus twice.
        bitA = OWI_ReadBit(pin);
     742:	8f 2d       	mov	r24, r15
     744:	f6 d0       	rcall	.+492    	; 0x932 <OWI_ReadBit>
     746:	e8 2e       	mov	r14, r24
        bitB = OWI_ReadBit(pin);
     748:	8f 2d       	mov	r24, r15
     74a:	f3 d0       	rcall	.+486    	; 0x932 <OWI_ReadBit>

        if (bitA && bitB)
     74c:	ee 20       	and	r14, r14
     74e:	a1 f1       	breq	.+104    	; 0x7b8 <OWI_SearchRom+0x9e>
     750:	81 11       	cpse	r24, r1
     752:	2e c0       	rjmp	.+92     	; 0x7b0 <OWI_SearchRom+0x96>
        {
            // Bits A and B are different. All devices have the same bit here.
            // Set the bit in bitPattern to this value.
            if (bitA)
            {
                (*bitPattern) |= bitMask;
     754:	98 81       	ld	r25, Y
     756:	91 2b       	or	r25, r17
     758:	98 83       	st	Y, r25
     75a:	19 c0       	rjmp	.+50     	; 0x78e <OWI_SearchRom+0x74>
            }
            else
            {
                (*bitPattern) &= ~bitMask;
     75c:	28 81       	ld	r18, Y
     75e:	91 2f       	mov	r25, r17
     760:	90 95       	com	r25
     762:	92 23       	and	r25, r18
     764:	98 83       	st	Y, r25
     766:	13 c0       	rjmp	.+38     	; 0x78e <OWI_SearchRom+0x74>
        }
        else // Both bits 0
        {
            // If this is where a choice was made the last time,
            // a '1' bit is selected this time.
            if (currentBit == lastDeviation)
     768:	0d 11       	cpse	r16, r13
     76a:	04 c0       	rjmp	.+8      	; 0x774 <OWI_SearchRom+0x5a>
            {
                (*bitPattern) |= bitMask;
     76c:	88 81       	ld	r24, Y
     76e:	81 2b       	or	r24, r17
     770:	88 83       	st	Y, r24
     772:	0d c0       	rjmp	.+26     	; 0x78e <OWI_SearchRom+0x74>
            }
            // For the rest of the id, '0' bits are selected when
            // discrepancies occur.
            else if (currentBit > lastDeviation)
     774:	d0 16       	cp	r13, r16
     776:	38 f4       	brcc	.+14     	; 0x786 <OWI_SearchRom+0x6c>
            {
                (*bitPattern) &= ~bitMask;
     778:	98 81       	ld	r25, Y
     77a:	81 2f       	mov	r24, r17
     77c:	80 95       	com	r24
     77e:	89 23       	and	r24, r25
     780:	88 83       	st	Y, r24
     782:	b0 2e       	mov	r11, r16
     784:	04 c0       	rjmp	.+8      	; 0x78e <OWI_SearchRom+0x74>
                newDeviation = currentBit;
            }
            // If current bit in bit pattern = 0, then this is
            // out new deviation.
            else if ( !(*bitPattern & bitMask)) 
     786:	98 81       	ld	r25, Y
     788:	91 23       	and	r25, r17
     78a:	39 f0       	breq	.+14     	; 0x79a <OWI_SearchRom+0x80>
     78c:	03 c0       	rjmp	.+6      	; 0x794 <OWI_SearchRom+0x7a>
            }
        }
                
        
        // Send the selected bit to the bus.
        if ((*bitPattern) & bitMask)
     78e:	98 81       	ld	r25, Y
     790:	91 23       	and	r25, r17
     792:	21 f0       	breq	.+8      	; 0x79c <OWI_SearchRom+0x82>
        {
            OWI_WriteBit1(pin);
     794:	8f 2d       	mov	r24, r15
     796:	99 d0       	rcall	.+306    	; 0x8ca <OWI_WriteBit1>
     798:	03 c0       	rjmp	.+6      	; 0x7a0 <OWI_SearchRom+0x86>
     79a:	b0 2e       	mov	r11, r16
        }
        else
        {
            OWI_WriteBit0(pin);
     79c:	8f 2d       	mov	r24, r15
     79e:	af d0       	rcall	.+350    	; 0x8fe <OWI_WriteBit0>
        }

        // Increment current bit.    
        currentBit++;
     7a0:	0f 5f       	subi	r16, 0xFF	; 255

        // Adjust bitMask and bitPattern pointer.    
        bitMask <<= 1;
     7a2:	11 0f       	add	r17, r17
        if (!bitMask)
     7a4:	11 f4       	brne	.+4      	; 0x7aa <OWI_SearchRom+0x90>
        {
            bitMask = 0x01;
            bitPattern++;
     7a6:	21 96       	adiw	r28, 0x01	; 1

        // Adjust bitMask and bitPattern pointer.    
        bitMask <<= 1;
        if (!bitMask)
        {
            bitMask = 0x01;
     7a8:	1c 2d       	mov	r17, r12

    // Send SEARCH ROM command on the bus.
    OWI_SendByte(OWI_ROM_SEARCH, pin);
    
    // Walk through all 64 bits.
    while (currentBit <= 64)
     7aa:	01 34       	cpi	r16, 0x41	; 65
     7ac:	51 f6       	brne	.-108    	; 0x742 <OWI_SearchRom+0x28>
     7ae:	02 c0       	rjmp	.+4      	; 0x7b4 <OWI_SearchRom+0x9a>

        if (bitA && bitB)
        {
            // Both bits 1 (Error).
            newDeviation = OWI_ROM_SEARCH_FAILED;
            return SEARCH_ERROR;
     7b0:	8f ef       	ldi	r24, 0xFF	; 255
     7b2:	05 c0       	rjmp	.+10     	; 0x7be <OWI_SearchRom+0xa4>
     7b4:	8b 2d       	mov	r24, r11
     7b6:	03 c0       	rjmp	.+6      	; 0x7be <OWI_SearchRom+0xa4>
        }
        else if (bitA ^ bitB)
     7b8:	81 11       	cpse	r24, r1
     7ba:	d0 cf       	rjmp	.-96     	; 0x75c <OWI_SearchRom+0x42>
     7bc:	d5 cf       	rjmp	.-86     	; 0x768 <OWI_SearchRom+0x4e>
            bitMask = 0x01;
            bitPattern++;
        }
    }
    return newDeviation;
}
     7be:	df 91       	pop	r29
     7c0:	cf 91       	pop	r28
     7c2:	1f 91       	pop	r17
     7c4:	0f 91       	pop	r16
     7c6:	ff 90       	pop	r15
     7c8:	ef 90       	pop	r14
     7ca:	df 90       	pop	r13
     7cc:	cf 90       	pop	r12
     7ce:	bf 90       	pop	r11
     7d0:	08 95       	ret

000007d2 <OWI_SearchDevices>:
 *  \retval SEARCH_SUCCESSFUL   Search completed successfully.
 *  \retval SEARCH_CRC_ERROR    A CRC error occured. Probably because of noise
 *                              during transmission.
 */
unsigned char OWI_SearchDevices(OWI_device * devices, unsigned char numDevices, unsigned char pin, unsigned char *num)
{
     7d2:	8f 92       	push	r8
     7d4:	9f 92       	push	r9
     7d6:	af 92       	push	r10
     7d8:	bf 92       	push	r11
     7da:	cf 92       	push	r12
     7dc:	df 92       	push	r13
     7de:	ef 92       	push	r14
     7e0:	ff 92       	push	r15
     7e2:	0f 93       	push	r16
     7e4:	1f 93       	push	r17
     7e6:	cf 93       	push	r28
     7e8:	df 93       	push	r29
     7ea:	8c 01       	movw	r16, r24
     7ec:	94 2e       	mov	r9, r20
     7ee:	79 01       	movw	r14, r18
    unsigned char lastDeviation;
    unsigned char numFoundDevices;
    unsigned char flag = SEARCH_SUCCESSFUL;
    
    //  1Wire     
    for (i = 0; i < numDevices; i++)
     7f0:	66 23       	and	r22, r22
     7f2:	71 f0       	breq	.+28     	; 0x810 <OWI_SearchDevices+0x3e>
     7f4:	dc 01       	movw	r26, r24
     7f6:	20 e0       	ldi	r18, 0x00	; 0
 *  \retval SEARCH_SUCCESSFUL   Search completed successfully.
 *  \retval SEARCH_CRC_ERROR    A CRC error occured. Probably because of noise
 *                              during transmission.
 */
unsigned char OWI_SearchDevices(OWI_device * devices, unsigned char numDevices, unsigned char pin, unsigned char *num)
{
     7f8:	88 e0       	ldi	r24, 0x08	; 8
     7fa:	07 c0       	rjmp	.+14     	; 0x80a <OWI_SearchDevices+0x38>
    //  1Wire     
    for (i = 0; i < numDevices; i++)
    {
        for (j = 0; j < 8; j++)
        {
            devices[i].id[j] = 0x00;
     7fc:	11 92       	st	Z+, r1
     7fe:	91 50       	subi	r25, 0x01	; 1
    unsigned char flag = SEARCH_SUCCESSFUL;
    
    //  1Wire     
    for (i = 0; i < numDevices; i++)
    {
        for (j = 0; j < 8; j++)
     800:	e9 f7       	brne	.-6      	; 0x7fc <OWI_SearchDevices+0x2a>
    unsigned char lastDeviation;
    unsigned char numFoundDevices;
    unsigned char flag = SEARCH_SUCCESSFUL;
    
    //  1Wire     
    for (i = 0; i < numDevices; i++)
     802:	2f 5f       	subi	r18, 0xFF	; 255
     804:	18 96       	adiw	r26, 0x08	; 8
     806:	26 17       	cp	r18, r22
     808:	19 f0       	breq	.+6      	; 0x810 <OWI_SearchDevices+0x3e>
 *  \retval SEARCH_SUCCESSFUL   Search completed successfully.
 *  \retval SEARCH_CRC_ERROR    A CRC error occured. Probably because of noise
 *                              during transmission.
 */
unsigned char OWI_SearchDevices(OWI_device * devices, unsigned char numDevices, unsigned char pin, unsigned char *num)
{
     80a:	fd 01       	movw	r30, r26
     80c:	98 2f       	mov	r25, r24
     80e:	f6 cf       	rjmp	.-20     	; 0x7fc <OWI_SearchDevices+0x2a>
            devices[i].id[j] = 0x00;
        }
    }
    
    numFoundDevices = 0;
    newID = devices[0].id;
     810:	c0 2e       	mov	r12, r16
     812:	d1 2e       	mov	r13, r17
    lastDeviation = 0;
    currentID = newID;
     814:	e0 2f       	mov	r30, r16
     816:	f1 2f       	mov	r31, r17
        {
            devices[i].id[j] = 0x00;
        }
    }
    
    numFoundDevices = 0;
     818:	b1 2c       	mov	r11, r1
    newID = devices[0].id;
    lastDeviation = 0;
     81a:	a1 2c       	mov	r10, r1
    currentID = newID;

    do  
    {
      memcpy(newID, currentID, 8);
     81c:	68 94       	set
     81e:	88 24       	eor	r8, r8
     820:	83 f8       	bld	r8, 3
     822:	ac 2d       	mov	r26, r12
     824:	bd 2d       	mov	r27, r13
     826:	88 2d       	mov	r24, r8
     828:	01 90       	ld	r0, Z+
     82a:	0d 92       	st	X+, r0
     82c:	8a 95       	dec	r24
     82e:	e1 f7       	brne	.-8      	; 0x828 <OWI_SearchDevices+0x56>
      if (!OWI_DetectPresence(pin)){
     830:	89 2d       	mov	r24, r9
     832:	a0 d0       	rcall	.+320    	; 0x974 <OWI_DetectPresence>
     834:	88 23       	and	r24, r24
     836:	51 f1       	breq	.+84     	; 0x88c <OWI_SearchDevices+0xba>
        return SEARCH_ERROR;        
      };
      lastDeviation = OWI_SearchRom(newID, lastDeviation, pin);
     838:	49 2d       	mov	r20, r9
     83a:	6a 2d       	mov	r22, r10
     83c:	8c 2d       	mov	r24, r12
     83e:	9d 2d       	mov	r25, r13
     840:	6c df       	rcall	.-296    	; 0x71a <OWI_SearchRom>
     842:	a8 2e       	mov	r10, r24
      currentID = newID;
      numFoundDevices++;
     844:	b3 94       	inc	r11
      newID=devices[numFoundDevices].id;                
     846:	e8 01       	movw	r28, r16
     848:	88 e0       	ldi	r24, 0x08	; 8
     84a:	b8 9e       	mul	r11, r24
     84c:	c0 0d       	add	r28, r0
     84e:	d1 1d       	adc	r29, r1
     850:	11 24       	eor	r1, r1
    } while(lastDeviation != OWI_ROM_SEARCH_FINISHED);            
     852:	aa 20       	and	r10, r10
     854:	29 f0       	breq	.+10     	; 0x860 <OWI_SearchDevices+0x8e>
      memcpy(newID, currentID, 8);
      if (!OWI_DetectPresence(pin)){
        return SEARCH_ERROR;        
      };
      lastDeviation = OWI_SearchRom(newID, lastDeviation, pin);
      currentID = newID;
     856:	ec 2d       	mov	r30, r12
     858:	fd 2d       	mov	r31, r13
      numFoundDevices++;
      newID=devices[numFoundDevices].id;                
     85a:	cc 2e       	mov	r12, r28
     85c:	dd 2e       	mov	r13, r29
     85e:	e1 cf       	rjmp	.-62     	; 0x822 <OWI_SearchDevices+0x50>
    } while(lastDeviation != OWI_ROM_SEARCH_FINISHED);            

    
    // Go through all the devices and do CRC check.
    for (i = 0; i < numFoundDevices; i++)
     860:	bb 20       	and	r11, r11
     862:	b1 f0       	breq	.+44     	; 0x890 <OWI_SearchDevices+0xbe>
     864:	d0 e0       	ldi	r29, 0x00	; 0
     866:	c0 e0       	ldi	r28, 0x00	; 0
    {
        // If any id has a crc error, return error.
        if(OWI_CheckRomCRC(devices[i].id) != OWI_CRC_OK)
        {
            flag = SEARCH_CRC_ERROR;
     868:	dd 24       	eor	r13, r13
     86a:	d3 94       	inc	r13
    
    // Go through all the devices and do CRC check.
    for (i = 0; i < numFoundDevices; i++)
    {
        // If any id has a crc error, return error.
        if(OWI_CheckRomCRC(devices[i].id) != OWI_CRC_OK)
     86c:	c8 01       	movw	r24, r16
     86e:	d9 de       	rcall	.-590    	; 0x622 <OWI_CheckRomCRC>
     870:	81 11       	cpse	r24, r1
     872:	05 c0       	rjmp	.+10     	; 0x87e <OWI_SearchDevices+0xac>
        {
            flag = SEARCH_CRC_ERROR;
        }
        else 
        {
           (*num)++;
     874:	f7 01       	movw	r30, r14
     876:	90 81       	ld	r25, Z
     878:	9f 5f       	subi	r25, 0xFF	; 255
     87a:	90 83       	st	Z, r25
     87c:	01 c0       	rjmp	.+2      	; 0x880 <OWI_SearchDevices+0xae>
    for (i = 0; i < numFoundDevices; i++)
    {
        // If any id has a crc error, return error.
        if(OWI_CheckRomCRC(devices[i].id) != OWI_CRC_OK)
        {
            flag = SEARCH_CRC_ERROR;
     87e:	dd 2d       	mov	r29, r13
      newID=devices[numFoundDevices].id;                
    } while(lastDeviation != OWI_ROM_SEARCH_FINISHED);            

    
    // Go through all the devices and do CRC check.
    for (i = 0; i < numFoundDevices; i++)
     880:	cf 5f       	subi	r28, 0xFF	; 255
     882:	08 5f       	subi	r16, 0xF8	; 248
     884:	1f 4f       	sbci	r17, 0xFF	; 255
     886:	cb 11       	cpse	r28, r11
     888:	f1 cf       	rjmp	.-30     	; 0x86c <OWI_SearchDevices+0x9a>
     88a:	04 c0       	rjmp	.+8      	; 0x894 <OWI_SearchDevices+0xc2>

    do  
    {
      memcpy(newID, currentID, 8);
      if (!OWI_DetectPresence(pin)){
        return SEARCH_ERROR;        
     88c:	8f ef       	ldi	r24, 0xFF	; 255
     88e:	03 c0       	rjmp	.+6      	; 0x896 <OWI_SearchDevices+0xc4>
      newID=devices[numFoundDevices].id;                
    } while(lastDeviation != OWI_ROM_SEARCH_FINISHED);            

    
    // Go through all the devices and do CRC check.
    for (i = 0; i < numFoundDevices; i++)
     890:	80 e0       	ldi	r24, 0x00	; 0
     892:	01 c0       	rjmp	.+2      	; 0x896 <OWI_SearchDevices+0xc4>
     894:	8d 2f       	mov	r24, r29
           (*num)++;
        }
    }
    // Else, return Successful.
    return flag;
}
     896:	df 91       	pop	r29
     898:	cf 91       	pop	r28
     89a:	1f 91       	pop	r17
     89c:	0f 91       	pop	r16
     89e:	ff 90       	pop	r15
     8a0:	ef 90       	pop	r14
     8a2:	df 90       	pop	r13
     8a4:	cf 90       	pop	r12
     8a6:	bf 90       	pop	r11
     8a8:	af 90       	pop	r10
     8aa:	9f 90       	pop	r9
     8ac:	8f 90       	pop	r8
     8ae:	08 95       	ret

000008b0 <OWI_Init>:
 *
 *  \param  pins    A bitmask of the buses to initialize.
 */
void OWI_Init(unsigned char pins)
{
    OWI_RELEASE_BUS(pins);
     8b0:	94 b3       	in	r25, 0x14	; 20
     8b2:	80 95       	com	r24
     8b4:	98 23       	and	r25, r24
     8b6:	94 bb       	out	0x14, r25	; 20
     8b8:	95 b3       	in	r25, 0x15	; 21
     8ba:	89 23       	and	r24, r25
     8bc:	85 bb       	out	0x15, r24	; 21
	#else
		//round up by default
		__ticks_dc = (uint32_t)(ceil(fabs(__tmp)));
	#endif

	__builtin_avr_delay_cycles(__ticks_dc);
     8be:	8c e5       	ldi	r24, 0x5C	; 92
     8c0:	99 e0       	ldi	r25, 0x09	; 9
     8c2:	01 97       	sbiw	r24, 0x01	; 1
     8c4:	f1 f7       	brne	.-4      	; 0x8c2 <OWI_Init+0x12>
     8c6:	00 c0       	rjmp	.+0      	; 0x8c8 <OWI_Init+0x18>
     8c8:	08 95       	ret

000008ca <OWI_WriteBit1>:
void OWI_WriteBit1(unsigned char pins)
{
    unsigned char intState;
    
    // Disable interrupts.
    intState = __save_interrupt();
     8ca:	9f b7       	in	r25, 0x3f	; 63
    __disable_interrupt();
     8cc:	f8 94       	cli
    
    // Drive bus low and delay.
    OWI_PULL_BUS_LOW(pins);
     8ce:	24 b3       	in	r18, 0x14	; 20
     8d0:	28 2b       	or	r18, r24
     8d2:	24 bb       	out	0x14, r18	; 20
     8d4:	25 b3       	in	r18, 0x15	; 21
     8d6:	80 95       	com	r24
     8d8:	28 23       	and	r18, r24
     8da:	25 bb       	out	0x15, r18	; 21
     8dc:	23 e2       	ldi	r18, 0x23	; 35
     8de:	2a 95       	dec	r18
     8e0:	f1 f7       	brne	.-4      	; 0x8de <OWI_WriteBit1+0x14>
     8e2:	00 c0       	rjmp	.+0      	; 0x8e4 <OWI_WriteBit1+0x1a>
    __delay_cycles(OWI_DELAY_A_STD_MODE);
    
    // Release bus and delay.
    OWI_RELEASE_BUS(pins);
     8e4:	24 b3       	in	r18, 0x14	; 20
     8e6:	28 23       	and	r18, r24
     8e8:	24 bb       	out	0x14, r18	; 20
     8ea:	25 b3       	in	r18, 0x15	; 21
     8ec:	82 23       	and	r24, r18
     8ee:	85 bb       	out	0x15, r24	; 21
     8f0:	ec e3       	ldi	r30, 0x3C	; 60
     8f2:	f1 e0       	ldi	r31, 0x01	; 1
     8f4:	31 97       	sbiw	r30, 0x01	; 1
     8f6:	f1 f7       	brne	.-4      	; 0x8f4 <OWI_WriteBit1+0x2a>
     8f8:	00 c0       	rjmp	.+0      	; 0x8fa <OWI_WriteBit1+0x30>
    __delay_cycles(OWI_DELAY_B_STD_MODE);
    
    // Restore interrupts.
    __restore_interrupt(intState);
     8fa:	9f bf       	out	0x3f, r25	; 63
     8fc:	08 95       	ret

000008fe <OWI_WriteBit0>:
void OWI_WriteBit0(unsigned char pins)
{
    unsigned char intState;
    
    // Disable interrupts.
    intState = __save_interrupt();
     8fe:	9f b7       	in	r25, 0x3f	; 63
    __disable_interrupt();
     900:	f8 94       	cli
    
    // Drive bus low and delay.
    OWI_PULL_BUS_LOW(pins);
     902:	24 b3       	in	r18, 0x14	; 20
     904:	28 2b       	or	r18, r24
     906:	24 bb       	out	0x14, r18	; 20
     908:	25 b3       	in	r18, 0x15	; 21
     90a:	80 95       	com	r24
     90c:	28 23       	and	r18, r24
     90e:	25 bb       	out	0x15, r18	; 21
     910:	e8 e2       	ldi	r30, 0x28	; 40
     912:	f1 e0       	ldi	r31, 0x01	; 1
     914:	31 97       	sbiw	r30, 0x01	; 1
     916:	f1 f7       	brne	.-4      	; 0x914 <OWI_WriteBit0+0x16>
     918:	00 c0       	rjmp	.+0      	; 0x91a <OWI_WriteBit0+0x1c>
    __delay_cycles(OWI_DELAY_C_STD_MODE);
    
    // Release bus and delay.
    OWI_RELEASE_BUS(pins);
     91a:	24 b3       	in	r18, 0x14	; 20
     91c:	28 23       	and	r18, r24
     91e:	24 bb       	out	0x14, r18	; 20
     920:	25 b3       	in	r18, 0x15	; 21
     922:	82 23       	and	r24, r18
     924:	85 bb       	out	0x15, r24	; 21
     926:	fe e3       	ldi	r31, 0x3E	; 62
     928:	fa 95       	dec	r31
     92a:	f1 f7       	brne	.-4      	; 0x928 <OWI_WriteBit0+0x2a>
     92c:	00 00       	nop
    __delay_cycles(OWI_DELAY_D_STD_MODE);
    
    // Restore interrupts.
    __restore_interrupt(intState);
     92e:	9f bf       	out	0x3f, r25	; 63
     930:	08 95       	ret

00000932 <OWI_ReadBit>:
{
    unsigned char intState;
    unsigned char bitsRead;
    
    // Disable interrupts.
    intState = __save_interrupt();
     932:	2f b7       	in	r18, 0x3f	; 63
    __disable_interrupt();
     934:	f8 94       	cli
    
    // Drive bus low and delay.
    OWI_PULL_BUS_LOW(pins);
     936:	94 b3       	in	r25, 0x14	; 20
     938:	98 2b       	or	r25, r24
     93a:	94 bb       	out	0x14, r25	; 20
     93c:	35 b3       	in	r19, 0x15	; 21
     93e:	98 2f       	mov	r25, r24
     940:	90 95       	com	r25
     942:	39 23       	and	r19, r25
     944:	35 bb       	out	0x15, r19	; 21
     946:	33 e2       	ldi	r19, 0x23	; 35
     948:	3a 95       	dec	r19
     94a:	f1 f7       	brne	.-4      	; 0x948 <OWI_ReadBit+0x16>
     94c:	00 c0       	rjmp	.+0      	; 0x94e <OWI_ReadBit+0x1c>
    __delay_cycles(OWI_DELAY_A_STD_MODE);
    
    // Release bus and delay.
    OWI_RELEASE_BUS(pins);
     94e:	34 b3       	in	r19, 0x14	; 20
     950:	39 23       	and	r19, r25
     952:	34 bb       	out	0x14, r19	; 20
     954:	35 b3       	in	r19, 0x15	; 21
     956:	93 23       	and	r25, r19
     958:	95 bb       	out	0x15, r25	; 21
     95a:	97 e3       	ldi	r25, 0x37	; 55
     95c:	9a 95       	dec	r25
     95e:	f1 f7       	brne	.-4      	; 0x95c <OWI_ReadBit+0x2a>
     960:	00 c0       	rjmp	.+0      	; 0x962 <OWI_ReadBit+0x30>
    __delay_cycles(OWI_DELAY_E_STD_MODE);
    
    // Sample bus and delay.
    bitsRead = OWI_PIN & pins;
     962:	93 b3       	in	r25, 0x13	; 19
     964:	ef e0       	ldi	r30, 0x0F	; 15
     966:	f1 e0       	ldi	r31, 0x01	; 1
     968:	31 97       	sbiw	r30, 0x01	; 1
     96a:	f1 f7       	brne	.-4      	; 0x968 <OWI_ReadBit+0x36>
     96c:	00 c0       	rjmp	.+0      	; 0x96e <OWI_ReadBit+0x3c>
    __delay_cycles(OWI_DELAY_F_STD_MODE);
    
    // Restore interrupts.
    __restore_interrupt(intState);
     96e:	2f bf       	out	0x3f, r18	; 63
    
    return bitsRead;
}
     970:	89 23       	and	r24, r25
     972:	08 95       	ret

00000974 <OWI_DetectPresence>:
{
    unsigned char intState;
    unsigned char presenceDetected;
    
    // Disable interrupts.
    intState = __save_interrupt();
     974:	2f b7       	in	r18, 0x3f	; 63
    __disable_interrupt();
     976:	f8 94       	cli
    
    // Drive bus low and delay.
    OWI_PULL_BUS_LOW(pins);
     978:	94 b3       	in	r25, 0x14	; 20
     97a:	98 2b       	or	r25, r24
     97c:	94 bb       	out	0x14, r25	; 20
     97e:	35 b3       	in	r19, 0x15	; 21
     980:	98 2f       	mov	r25, r24
     982:	90 95       	com	r25
     984:	39 23       	and	r19, r25
     986:	35 bb       	out	0x15, r19	; 21
     988:	ec e5       	ldi	r30, 0x5C	; 92
     98a:	f9 e0       	ldi	r31, 0x09	; 9
     98c:	31 97       	sbiw	r30, 0x01	; 1
     98e:	f1 f7       	brne	.-4      	; 0x98c <OWI_DetectPresence+0x18>
     990:	00 c0       	rjmp	.+0      	; 0x992 <OWI_DetectPresence+0x1e>
    __delay_cycles(OWI_DELAY_H_STD_MODE);
    
    // Release bus and delay.
    OWI_RELEASE_BUS(pins);
     992:	34 b3       	in	r19, 0x14	; 20
     994:	39 23       	and	r19, r25
     996:	34 bb       	out	0x14, r19	; 20
     998:	35 b3       	in	r19, 0x15	; 21
     99a:	93 23       	and	r25, r19
     99c:	95 bb       	out	0x15, r25	; 21
     99e:	ea e5       	ldi	r30, 0x5A	; 90
     9a0:	f1 e0       	ldi	r31, 0x01	; 1
     9a2:	31 97       	sbiw	r30, 0x01	; 1
     9a4:	f1 f7       	brne	.-4      	; 0x9a2 <OWI_DetectPresence+0x2e>
     9a6:	00 c0       	rjmp	.+0      	; 0x9a8 <OWI_DetectPresence+0x34>
    __delay_cycles(OWI_DELAY_I_STD_MODE);
    
    // Sample bus to detect presence signal and delay.
    presenceDetected = ((~OWI_PIN) & pins);
     9a8:	93 b3       	in	r25, 0x13	; 19
     9aa:	ee ef       	ldi	r30, 0xFE	; 254
     9ac:	f7 e0       	ldi	r31, 0x07	; 7
     9ae:	31 97       	sbiw	r30, 0x01	; 1
     9b0:	f1 f7       	brne	.-4      	; 0x9ae <OWI_DetectPresence+0x3a>
     9b2:	00 c0       	rjmp	.+0      	; 0x9b4 <OWI_DetectPresence+0x40>
    __delay_cycles(OWI_DELAY_J_STD_MODE);
    
    // Restore interrupts.
    __restore_interrupt(intState);
     9b4:	2f bf       	out	0x3f, r18	; 63
    // Release bus and delay.
    OWI_RELEASE_BUS(pins);
    __delay_cycles(OWI_DELAY_I_STD_MODE);
    
    // Sample bus to detect presence signal and delay.
    presenceDetected = ((~OWI_PIN) & pins);
     9b6:	90 95       	com	r25
    
    // Restore interrupts.
    __restore_interrupt(intState);
    
    return presenceDetected;
}
     9b8:	89 23       	and	r24, r25
     9ba:	08 95       	ret

000009bc <eeprom_load>:
/* INTERRUPT BUTTON */
uint8_t  BUTTON_PRESSED   = False;
uint16_t BTN_TIMER		  = 0;

void eeprom_load()
{
     9bc:	cf 93       	push	r28
	/*     EEPROM */
	/*    */
	uint8_t first_run = eeprom_read_byte(&ee_first_run);
     9be:	80 e0       	ldi	r24, 0x00	; 0
     9c0:	90 e0       	ldi	r25, 0x00	; 0
     9c2:	ef d6       	rcall	.+3550   	; 0x17a2 <__eerd_byte_m8>
     9c4:	c8 2f       	mov	r28, r24
	if(first_run != False)
     9c6:	88 23       	and	r24, r24
     9c8:	21 f0       	breq	.+8      	; 0x9d2 <eeprom_load+0x16>
		eeprom_write_byte(&ee_first_run, False);
     9ca:	60 e0       	ldi	r22, 0x00	; 0
     9cc:	80 e0       	ldi	r24, 0x00	; 0
     9ce:	90 e0       	ldi	r25, 0x00	; 0
     9d0:	f5 d6       	rcall	.+3562   	; 0x17bc <__eewr_byte_m8>
	/*    EEPROM */
	set_max_tmp = eeprom_read_byte(&ee_set_max_tmp);
     9d2:	89 e0       	ldi	r24, 0x09	; 9
     9d4:	90 e0       	ldi	r25, 0x00	; 0
     9d6:	e5 d6       	rcall	.+3530   	; 0x17a2 <__eerd_byte_m8>
	if((set_max_tmp < temp_min) || (set_max_tmp > temp_max))
     9d8:	9c ee       	ldi	r25, 0xEC	; 236
     9da:	98 0f       	add	r25, r24
     9dc:	97 34       	cpi	r25, 0x47	; 71
     9de:	18 f4       	brcc	.+6      	; 0x9e6 <eeprom_load+0x2a>
	/*    */
	uint8_t first_run = eeprom_read_byte(&ee_first_run);
	if(first_run != False)
		eeprom_write_byte(&ee_first_run, False);
	/*    EEPROM */
	set_max_tmp = eeprom_read_byte(&ee_set_max_tmp);
     9e0:	80 93 80 01 	sts	0x0180, r24
     9e4:	03 c0       	rjmp	.+6      	; 0x9ec <eeprom_load+0x30>
	if((set_max_tmp < temp_min) || (set_max_tmp > temp_max))
		set_max_tmp = temp_min;
     9e6:	84 e1       	ldi	r24, 0x14	; 20
     9e8:	80 93 80 01 	sts	0x0180, r24
	
	set_max_pwr = eeprom_read_word(&ee_set_max_pwr);
     9ec:	87 e0       	ldi	r24, 0x07	; 7
     9ee:	90 e0       	ldi	r25, 0x00	; 0
     9f0:	e0 d6       	rcall	.+3520   	; 0x17b2 <__eerd_word_m8>
	if((set_max_pwr < power_min) || (set_max_pwr > power_max))
     9f2:	9c 01       	movw	r18, r24
     9f4:	24 56       	subi	r18, 0x64	; 100
     9f6:	31 09       	sbc	r19, r1
     9f8:	29 34       	cpi	r18, 0x49	; 73
     9fa:	36 42       	sbci	r19, 0x26	; 38
     9fc:	28 f4       	brcc	.+10     	; 0xa08 <eeprom_load+0x4c>
	/*    EEPROM */
	set_max_tmp = eeprom_read_byte(&ee_set_max_tmp);
	if((set_max_tmp < temp_min) || (set_max_tmp > temp_max))
		set_max_tmp = temp_min;
	
	set_max_pwr = eeprom_read_word(&ee_set_max_pwr);
     9fe:	90 93 7f 01 	sts	0x017F, r25
     a02:	80 93 7e 01 	sts	0x017E, r24
     a06:	06 c0       	rjmp	.+12     	; 0xa14 <eeprom_load+0x58>
	if((set_max_pwr < power_min) || (set_max_pwr > power_max))
		set_max_pwr = power_min;
     a08:	24 e6       	ldi	r18, 0x64	; 100
     a0a:	30 e0       	ldi	r19, 0x00	; 0
     a0c:	30 93 7f 01 	sts	0x017F, r19
     a10:	20 93 7e 01 	sts	0x017E, r18
	
	set_vtg = eeprom_read_byte(&ee_set_vtg);
     a14:	86 e0       	ldi	r24, 0x06	; 6
     a16:	90 e0       	ldi	r25, 0x00	; 0
     a18:	c4 d6       	rcall	.+3464   	; 0x17a2 <__eerd_byte_m8>
	if((set_vtg < voltage_min) || (set_vtg > voltage_max))
     a1a:	9c e4       	ldi	r25, 0x4C	; 76
     a1c:	98 0f       	add	r25, r24
     a1e:	97 34       	cpi	r25, 0x47	; 71
     a20:	18 f4       	brcc	.+6      	; 0xa28 <eeprom_load+0x6c>
	
	set_max_pwr = eeprom_read_word(&ee_set_max_pwr);
	if((set_max_pwr < power_min) || (set_max_pwr > power_max))
		set_max_pwr = power_min;
	
	set_vtg = eeprom_read_byte(&ee_set_vtg);
     a22:	80 93 7d 01 	sts	0x017D, r24
     a26:	03 c0       	rjmp	.+6      	; 0xa2e <eeprom_load+0x72>
	if((set_vtg < voltage_min) || (set_vtg > voltage_max))
		set_vtg = voltage_default;
     a28:	8c ed       	ldi	r24, 0xDC	; 220
     a2a:	80 93 7d 01 	sts	0x017D, r24
	
	set_timer = eeprom_read_word(&ee_set_timer);
     a2e:	84 e0       	ldi	r24, 0x04	; 4
     a30:	90 e0       	ldi	r25, 0x00	; 0
     a32:	bf d6       	rcall	.+3454   	; 0x17b2 <__eerd_word_m8>
	if((set_timer < timer_min) || (set_timer > timer_max))
     a34:	81 32       	cpi	r24, 0x21	; 33
     a36:	2c e1       	ldi	r18, 0x1C	; 28
     a38:	92 07       	cpc	r25, r18
     a3a:	28 f4       	brcc	.+10     	; 0xa46 <eeprom_load+0x8a>
	
	set_vtg = eeprom_read_byte(&ee_set_vtg);
	if((set_vtg < voltage_min) || (set_vtg > voltage_max))
		set_vtg = voltage_default;
	
	set_timer = eeprom_read_word(&ee_set_timer);
     a3c:	90 93 7c 01 	sts	0x017C, r25
     a40:	80 93 7b 01 	sts	0x017B, r24
     a44:	04 c0       	rjmp	.+8      	; 0xa4e <eeprom_load+0x92>
	if((set_timer < timer_min) || (set_timer > timer_max))
		set_timer = timer_default;
     a46:	10 92 7c 01 	sts	0x017C, r1
     a4a:	10 92 7b 01 	sts	0x017B, r1

	set_light = eeprom_read_byte(&ee_set_light);
     a4e:	83 e0       	ldi	r24, 0x03	; 3
     a50:	90 e0       	ldi	r25, 0x00	; 0
     a52:	a7 d6       	rcall	.+3406   	; 0x17a2 <__eerd_byte_m8>
     a54:	80 93 7a 01 	sts	0x017A, r24
		if((set_light < lcd_light_min) || (set_light > lcd_light_max))
			set_light = lcd_light_max;

	set_contrast = eeprom_read_byte(&ee_set_contrast);
     a58:	82 e0       	ldi	r24, 0x02	; 2
     a5a:	90 e0       	ldi	r25, 0x00	; 0
     a5c:	a2 d6       	rcall	.+3396   	; 0x17a2 <__eerd_byte_m8>
	if((set_contrast < lcd_contr_min) || (set_contrast > lcd_contr_max) || (first_run == 0xFF))
     a5e:	cf 3f       	cpi	r28, 0xFF	; 255
     a60:	19 f0       	breq	.+6      	; 0xa68 <eeprom_load+0xac>

	set_light = eeprom_read_byte(&ee_set_light);
		if((set_light < lcd_light_min) || (set_light > lcd_light_max))
			set_light = lcd_light_max;

	set_contrast = eeprom_read_byte(&ee_set_contrast);
     a62:	80 93 79 01 	sts	0x0179, r24
     a66:	03 c0       	rjmp	.+6      	; 0xa6e <eeprom_load+0xb2>
	if((set_contrast < lcd_contr_min) || (set_contrast > lcd_contr_max) || (first_run == 0xFF))
		set_contrast = lcd_contr_def;
     a68:	84 e6       	ldi	r24, 0x64	; 100
     a6a:	80 93 79 01 	sts	0x0179, r24
	
	set_buzzer = eeprom_read_byte(&ee_set_buzzer);
     a6e:	81 e0       	ldi	r24, 0x01	; 1
     a70:	90 e0       	ldi	r25, 0x00	; 0
     a72:	97 d6       	rcall	.+3374   	; 0x17a2 <__eerd_byte_m8>
	if((set_buzzer < 0) || (set_buzzer >= 1))
     a74:	81 11       	cpse	r24, r1
     a76:	03 c0       	rjmp	.+6      	; 0xa7e <eeprom_load+0xc2>

	set_contrast = eeprom_read_byte(&ee_set_contrast);
	if((set_contrast < lcd_contr_min) || (set_contrast > lcd_contr_max) || (first_run == 0xFF))
		set_contrast = lcd_contr_def;
	
	set_buzzer = eeprom_read_byte(&ee_set_buzzer);
     a78:	10 92 60 00 	sts	0x0060, r1
     a7c:	03 c0       	rjmp	.+6      	; 0xa84 <eeprom_load+0xc8>
	if((set_buzzer < 0) || (set_buzzer >= 1))
		set_buzzer = True;
     a7e:	81 e0       	ldi	r24, 0x01	; 1
     a80:	80 93 60 00 	sts	0x0060, r24
	else
		set_buzzer = False;
}
     a84:	cf 91       	pop	r28
     a86:	08 95       	ret

00000a88 <eeprom_save>:
void eeprom_save()
{
	/*     EEPROM */
	eeprom_write_byte(&ee_set_max_tmp, set_max_tmp);
     a88:	60 91 80 01 	lds	r22, 0x0180
     a8c:	89 e0       	ldi	r24, 0x09	; 9
     a8e:	90 e0       	ldi	r25, 0x00	; 0
     a90:	95 d6       	rcall	.+3370   	; 0x17bc <__eewr_byte_m8>
	eeprom_write_word(&ee_set_max_pwr, set_max_pwr);
     a92:	60 91 7e 01 	lds	r22, 0x017E
     a96:	70 91 7f 01 	lds	r23, 0x017F
     a9a:	87 e0       	ldi	r24, 0x07	; 7
     a9c:	90 e0       	ldi	r25, 0x00	; 0
     a9e:	9b d6       	rcall	.+3382   	; 0x17d6 <__eewr_word_m8>
	eeprom_write_byte(&ee_set_vtg, set_vtg);
     aa0:	60 91 7d 01 	lds	r22, 0x017D
     aa4:	86 e0       	ldi	r24, 0x06	; 6
     aa6:	90 e0       	ldi	r25, 0x00	; 0
     aa8:	89 d6       	rcall	.+3346   	; 0x17bc <__eewr_byte_m8>
	eeprom_write_word(&ee_set_timer, set_timer);
     aaa:	60 91 7b 01 	lds	r22, 0x017B
     aae:	70 91 7c 01 	lds	r23, 0x017C
     ab2:	84 e0       	ldi	r24, 0x04	; 4
     ab4:	90 e0       	ldi	r25, 0x00	; 0
     ab6:	8f d6       	rcall	.+3358   	; 0x17d6 <__eewr_word_m8>
	eeprom_write_byte(&ee_set_light, set_light);
     ab8:	60 91 7a 01 	lds	r22, 0x017A
     abc:	83 e0       	ldi	r24, 0x03	; 3
     abe:	90 e0       	ldi	r25, 0x00	; 0
     ac0:	7d d6       	rcall	.+3322   	; 0x17bc <__eewr_byte_m8>
	eeprom_write_byte(&ee_set_contrast, set_contrast);
     ac2:	60 91 79 01 	lds	r22, 0x0179
     ac6:	82 e0       	ldi	r24, 0x02	; 2
     ac8:	90 e0       	ldi	r25, 0x00	; 0
     aca:	78 d6       	rcall	.+3312   	; 0x17bc <__eewr_byte_m8>
	eeprom_write_byte(&ee_set_buzzer, set_buzzer);	
     acc:	60 91 60 00 	lds	r22, 0x0060
     ad0:	81 e0       	ldi	r24, 0x01	; 1
     ad2:	90 e0       	ldi	r25, 0x00	; 0
     ad4:	73 d6       	rcall	.+3302   	; 0x17bc <__eewr_byte_m8>
     ad6:	08 95       	ret

00000ad8 <symbols_load>:
}
void symbols_load()
{
     ad8:	cf 93       	push	r28
     ada:	df 93       	push	r29
     adc:	cd b7       	in	r28, 0x3d	; 61
     ade:	de b7       	in	r29, 0x3e	; 62
     ae0:	c0 54       	subi	r28, 0x40	; 64
     ae2:	d1 09       	sbc	r29, r1
     ae4:	0f b6       	in	r0, 0x3f	; 63
     ae6:	f8 94       	cli
     ae8:	de bf       	out	0x3e, r29	; 62
     aea:	0f be       	out	0x3f, r0	; 63
     aec:	cd bf       	out	0x3d, r28	; 61
	/*       */
	/*      */
	uint8_t degree[8]=
     aee:	88 e0       	ldi	r24, 0x08	; 8
     af0:	e4 e6       	ldi	r30, 0x64	; 100
     af2:	f0 e0       	ldi	r31, 0x00	; 0
     af4:	de 01       	movw	r26, r28
     af6:	11 96       	adiw	r26, 0x01	; 1
     af8:	01 90       	ld	r0, Z+
     afa:	0d 92       	st	X+, r0
     afc:	8a 95       	dec	r24
     afe:	e1 f7       	brne	.-8      	; 0xaf8 <symbols_load+0x20>
		0b00000,
		0b00000,
		0b00000,
		0b00000
	};
	uint8_t thermometr[8]=
     b00:	88 e0       	ldi	r24, 0x08	; 8
     b02:	ec e6       	ldi	r30, 0x6C	; 108
     b04:	f0 e0       	ldi	r31, 0x00	; 0
     b06:	de 01       	movw	r26, r28
     b08:	19 96       	adiw	r26, 0x09	; 9
     b0a:	01 90       	ld	r0, Z+
     b0c:	0d 92       	st	X+, r0
     b0e:	8a 95       	dec	r24
     b10:	e1 f7       	brne	.-8      	; 0xb0a <symbols_load+0x32>
		0b11111,
		0b11111,
		0b01110,
		0b00000
	};
	uint8_t flash[8]=
     b12:	88 e0       	ldi	r24, 0x08	; 8
     b14:	e4 e7       	ldi	r30, 0x74	; 116
     b16:	f0 e0       	ldi	r31, 0x00	; 0
     b18:	de 01       	movw	r26, r28
     b1a:	51 96       	adiw	r26, 0x11	; 17
     b1c:	01 90       	ld	r0, Z+
     b1e:	0d 92       	st	X+, r0
     b20:	8a 95       	dec	r24
     b22:	e1 f7       	brne	.-8      	; 0xb1c <symbols_load+0x44>
		0b01110,
		0b11100,
		0b10000,
		0b00000
	};
	uint8_t timer[8]=
     b24:	88 e0       	ldi	r24, 0x08	; 8
     b26:	ec e7       	ldi	r30, 0x7C	; 124
     b28:	f0 e0       	ldi	r31, 0x00	; 0
     b2a:	de 01       	movw	r26, r28
     b2c:	59 96       	adiw	r26, 0x19	; 25
     b2e:	01 90       	ld	r0, Z+
     b30:	0d 92       	st	X+, r0
     b32:	8a 95       	dec	r24
     b34:	e1 f7       	brne	.-8      	; 0xb2e <symbols_load+0x56>
		0b01110,
		0b11111,
		0b11111,
		0b00000
	};
	uint8_t plug[8]=
     b36:	88 e0       	ldi	r24, 0x08	; 8
     b38:	e4 e8       	ldi	r30, 0x84	; 132
     b3a:	f0 e0       	ldi	r31, 0x00	; 0
     b3c:	de 01       	movw	r26, r28
     b3e:	91 96       	adiw	r26, 0x21	; 33
     b40:	01 90       	ld	r0, Z+
     b42:	0d 92       	st	X+, r0
     b44:	8a 95       	dec	r24
     b46:	e1 f7       	brne	.-8      	; 0xb40 <symbols_load+0x68>
		0b01110,
		0b00100,
		0b00010,
		0b00100
	};
	uint8_t light[8]=
     b48:	88 e0       	ldi	r24, 0x08	; 8
     b4a:	ec e8       	ldi	r30, 0x8C	; 140
     b4c:	f0 e0       	ldi	r31, 0x00	; 0
     b4e:	de 01       	movw	r26, r28
     b50:	99 96       	adiw	r26, 0x29	; 41
     b52:	01 90       	ld	r0, Z+
     b54:	0d 92       	st	X+, r0
     b56:	8a 95       	dec	r24
     b58:	e1 f7       	brne	.-8      	; 0xb52 <symbols_load+0x7a>
		0b01110,
		0b01110,
		0b00100,
		0b00000
	};
	uint8_t contrast[8]=
     b5a:	88 e0       	ldi	r24, 0x08	; 8
     b5c:	e4 e9       	ldi	r30, 0x94	; 148
     b5e:	f0 e0       	ldi	r31, 0x00	; 0
     b60:	de 01       	movw	r26, r28
     b62:	d1 96       	adiw	r26, 0x31	; 49
     b64:	01 90       	ld	r0, Z+
     b66:	0d 92       	st	X+, r0
     b68:	8a 95       	dec	r24
     b6a:	e1 f7       	brne	.-8      	; 0xb64 <symbols_load+0x8c>
		0b10011,
		0b10111,
		0b01110,
		0b00000
	};
	uint8_t sound[8]=
     b6c:	88 e0       	ldi	r24, 0x08	; 8
     b6e:	ec e9       	ldi	r30, 0x9C	; 156
     b70:	f0 e0       	ldi	r31, 0x00	; 0
     b72:	de 01       	movw	r26, r28
     b74:	d9 96       	adiw	r26, 0x39	; 57
     b76:	01 90       	ld	r0, Z+
     b78:	0d 92       	st	X+, r0
     b7a:	8a 95       	dec	r24
     b7c:	e1 f7       	brne	.-8      	; 0xb76 <symbols_load+0x9e>
		0b00110,
		0b00000
	};
	
	/*      */
	lcd_load(degree, 0);		//     
     b7e:	60 e0       	ldi	r22, 0x00	; 0
     b80:	ce 01       	movw	r24, r28
     b82:	01 96       	adiw	r24, 0x01	; 1
     b84:	54 db       	rcall	.-2392   	; 0x22e <lcd_load>
	lcd_load(thermometr, 1);	//   
     b86:	61 e0       	ldi	r22, 0x01	; 1
     b88:	ce 01       	movw	r24, r28
     b8a:	09 96       	adiw	r24, 0x09	; 9
     b8c:	50 db       	rcall	.-2400   	; 0x22e <lcd_load>
	lcd_load(flash, 2);			//   
     b8e:	62 e0       	ldi	r22, 0x02	; 2
     b90:	ce 01       	movw	r24, r28
     b92:	41 96       	adiw	r24, 0x11	; 17
     b94:	4c db       	rcall	.-2408   	; 0x22e <lcd_load>
	lcd_load(timer, 3);			//   
     b96:	63 e0       	ldi	r22, 0x03	; 3
     b98:	ce 01       	movw	r24, r28
     b9a:	49 96       	adiw	r24, 0x19	; 25
     b9c:	48 db       	rcall	.-2416   	; 0x22e <lcd_load>
	lcd_load(plug, 4);			//   
     b9e:	64 e0       	ldi	r22, 0x04	; 4
     ba0:	ce 01       	movw	r24, r28
     ba2:	81 96       	adiw	r24, 0x21	; 33
     ba4:	44 db       	rcall	.-2424   	; 0x22e <lcd_load>
	lcd_load(light, 5);			//   
     ba6:	65 e0       	ldi	r22, 0x05	; 5
     ba8:	ce 01       	movw	r24, r28
     baa:	89 96       	adiw	r24, 0x29	; 41
     bac:	40 db       	rcall	.-2432   	; 0x22e <lcd_load>
	lcd_load(contrast, 6);		//   
     bae:	66 e0       	ldi	r22, 0x06	; 6
     bb0:	ce 01       	movw	r24, r28
     bb2:	c1 96       	adiw	r24, 0x31	; 49
     bb4:	3c db       	rcall	.-2440   	; 0x22e <lcd_load>
	lcd_load(sound, 7);			//   
     bb6:	67 e0       	ldi	r22, 0x07	; 7
     bb8:	ce 01       	movw	r24, r28
     bba:	c9 96       	adiw	r24, 0x39	; 57
     bbc:	38 db       	rcall	.-2448   	; 0x22e <lcd_load>
}
     bbe:	c0 5c       	subi	r28, 0xC0	; 192
     bc0:	df 4f       	sbci	r29, 0xFF	; 255
     bc2:	0f b6       	in	r0, 0x3f	; 63
     bc4:	f8 94       	cli
     bc6:	de bf       	out	0x3e, r29	; 62
     bc8:	0f be       	out	0x3f, r0	; 63
     bca:	cd bf       	out	0x3d, r28	; 61
     bcc:	df 91       	pop	r29
     bce:	cf 91       	pop	r28
     bd0:	08 95       	ret

00000bd2 <load_control>:
void load_control(uint8_t channel, uint8_t state)
{
	/*    */
	switch (channel)
     bd2:	81 30       	cpi	r24, 0x01	; 1
     bd4:	19 f0       	breq	.+6      	; 0xbdc <load_control+0xa>
     bd6:	82 30       	cpi	r24, 0x02	; 2
     bd8:	39 f0       	breq	.+14     	; 0xbe8 <load_control+0x16>
     bda:	0c c0       	rjmp	.+24     	; 0xbf4 <load_control+0x22>
	{
		case 1:
			if(state)
     bdc:	66 23       	and	r22, r22
     bde:	11 f0       	breq	.+4      	; 0xbe4 <load_control+0x12>
				ENABLE(PORTC, CH1);
     be0:	aa 9a       	sbi	0x15, 2	; 21
     be2:	08 95       	ret
			else
				DISABLE(PORTC, CH1);		
     be4:	aa 98       	cbi	0x15, 2	; 21
     be6:	08 95       	ret
			break;
		case 2:
			if(state)
     be8:	66 23       	and	r22, r22
     bea:	11 f0       	breq	.+4      	; 0xbf0 <load_control+0x1e>
				ENABLE(PORTC, CH2);
     bec:	a9 9a       	sbi	0x15, 1	; 21
     bee:	08 95       	ret
			else
				DISABLE(PORTC, CH2);		
     bf0:	a9 98       	cbi	0x15, 1	; 21
     bf2:	08 95       	ret
			break;
		default:
			if(state)
     bf4:	66 23       	and	r22, r22
     bf6:	19 f0       	breq	.+6      	; 0xbfe <load_control+0x2c>
			{
				ENABLE(PORTC, CH1);
     bf8:	aa 9a       	sbi	0x15, 2	; 21
				ENABLE(PORTC, CH2);				
     bfa:	a9 9a       	sbi	0x15, 1	; 21
     bfc:	08 95       	ret
			}
			else
			{
				DISABLE(PORTC, CH1);
     bfe:	aa 98       	cbi	0x15, 2	; 21
				DISABLE(PORTC, CH2);
     c00:	a9 98       	cbi	0x15, 1	; 21
     c02:	08 95       	ret

00000c04 <ds18b20_search>:
{
    /*     */
	/*    -   1-Wire .
        -     -  -
	    ,      . */
    if (searchFlag == SEARCH_SENSORS)
     c04:	80 91 86 01 	lds	r24, 0x0186
     c08:	81 11       	cpse	r24, r1
     c0a:	14 c0       	rjmp	.+40     	; 0xc34 <ds18b20_search+0x30>
	{
		dev_num = 0;
     c0c:	10 92 84 01 	sts	0x0184, r1
		crcFlag = OWI_SearchDevices(allDevices, MAX_DEVICES, BUS, &dev_num);
     c10:	24 e8       	ldi	r18, 0x84	; 132
     c12:	31 e0       	ldi	r19, 0x01	; 1
     c14:	48 e0       	ldi	r20, 0x08	; 8
     c16:	62 e0       	ldi	r22, 0x02	; 2
     c18:	8f e8       	ldi	r24, 0x8F	; 143
     c1a:	91 e0       	ldi	r25, 0x01	; 1
     c1c:	da dd       	rcall	.-1100   	; 0x7d2 <OWI_SearchDevices>
     c1e:	80 93 85 01 	sts	0x0185, r24
		if((dev_num == MAX_DEVICES) && (crcFlag != SEARCH_CRC_ERROR))
     c22:	90 91 84 01 	lds	r25, 0x0184
     c26:	92 30       	cpi	r25, 0x02	; 2
     c28:	29 f4       	brne	.+10     	; 0xc34 <ds18b20_search+0x30>
     c2a:	81 30       	cpi	r24, 0x01	; 1
     c2c:	19 f0       	breq	.+6      	; 0xc34 <ds18b20_search+0x30>
			searchFlag = SENSORS_FOUND;
     c2e:	8f ef       	ldi	r24, 0xFF	; 255
     c30:	80 93 86 01 	sts	0x0186, r24
     c34:	08 95       	ret

00000c36 <startup>:
			   PD6  MODE BUTTON       (MODE, IN, PULLUP);
			   PD7  PLUS BUTTON       (MODE, IN, PULLUP);   
    */

    /*   */
    DDRB  = 0x3E;
     c36:	8e e3       	ldi	r24, 0x3E	; 62
     c38:	87 bb       	out	0x17, r24	; 23
	PORTB = 0x07;
     c3a:	87 e0       	ldi	r24, 0x07	; 7
     c3c:	88 bb       	out	0x18, r24	; 24
    DDRC  = 0x8F;
     c3e:	9f e8       	ldi	r25, 0x8F	; 143
     c40:	94 bb       	out	0x14, r25	; 20
    PORTC = 0x10;
     c42:	90 e1       	ldi	r25, 0x10	; 16
     c44:	95 bb       	out	0x15, r25	; 21
    DDRD  = 0x3F;
     c46:	9f e3       	ldi	r25, 0x3F	; 63
     c48:	91 bb       	out	0x11, r25	; 17
    PORTD = 0xC0;
     c4a:	90 ec       	ldi	r25, 0xC0	; 192
     c4c:	92 bb       	out	0x12, r25	; 18
	
	/*   */
	TIMSK|=(1<<TOIE0);
     c4e:	99 b7       	in	r25, 0x39	; 57
     c50:	91 60       	ori	r25, 0x01	; 1
     c52:	99 bf       	out	0x39, r25	; 57
	//      T0
	TCCR0|=(0<<CS02)|(0<<CS01)|(1<<CS00);
     c54:	93 b7       	in	r25, 0x33	; 51
     c56:	91 60       	ori	r25, 0x01	; 1
     c58:	93 bf       	out	0x33, r25	; 51
	// Prescaller: N = 1; f = 16 MHz 
	TCCR1A|=(1<<COM1A1)|(0<<COM1A0)|(1<<COM1B1)|(0<<COM1B0)|(0<<WGM11)|(1<<WGM10);
     c5a:	9f b5       	in	r25, 0x2f	; 47
     c5c:	91 6a       	ori	r25, 0xA1	; 161
     c5e:	9f bd       	out	0x2f, r25	; 47
	// PB1 (OC1A = LIGHT)  PB2 (OC1B = CONTRAST)  Phase-Correct PWM, 8-bit, TOP = 0x00FF
	TCCR1B|=(0<<WGM13)|(0<<WGM12)|(0<<CS12)|(0<<CS11)|(1<<CS10);
     c60:	9e b5       	in	r25, 0x2e	; 46
     c62:	91 60       	ori	r25, 0x01	; 1
     c64:	9e bd       	out	0x2e, r25	; 46
	// Prescaller: N = 1, f = 16 MHz / (2 * 1 * 256) = 31.250000 kHz
	TCCR2|=(1<<COM21)|(0<<COM20)|(1<<WGM21)|(1<<WGM20)|(1<<CS22)|(0<<CS21)|(0<<CS20);
     c66:	95 b5       	in	r25, 0x25	; 37
     c68:	9c 66       	ori	r25, 0x6C	; 108
     c6a:	95 bd       	out	0x25, r25	; 37
	// PB3 (OC2 = BUZZER)  Fast PWM, TOP = 0xFF, Prescaller: N = 64, f = 16 MHz / (64 * 256) = 976.562500 Hz
	OCR2=0x7F;
     c6c:	9f e7       	ldi	r25, 0x7F	; 127
     c6e:	93 bd       	out	0x23, r25	; 35
			S = T/t = TOP/OCR2 = 255/127 = 2.007874
			t = T/S = 1.024/2.007874 = 0.509992 s
	*/
	
	/*   */
	ADMUX|=(1<<REFS1)|(1<<REFS0)|(0<<MUX3)|(1<<MUX2)|(0<<MUX1)|(1<<MUX0);
     c70:	97 b1       	in	r25, 0x07	; 7
     c72:	95 6c       	ori	r25, 0xC5	; 197
     c74:	97 b9       	out	0x07, r25	; 7
	// : , 2.56V;  : ADC5
	ADCSRA|=(0<<ADSC)|(0<<ADFR)|(1<<ADIE)|(1<<ADPS2)|(1<<ADPS1)|(1<<ADPS0);
     c76:	96 b1       	in	r25, 0x06	; 6
     c78:	9f 60       	ori	r25, 0x0F	; 15
     c7a:	96 b9       	out	0x06, r25	; 6
            // Prescaller: N = 1024, f = 16 MHz / (2 * 1024 * 256) = 30.517578 Hz
            TCCR2|=(1<<COM21)|(0<<COM20)|(1<<WGM21)|(1<<WGM20)|(1<<CS22)|(1<<CS21)|(1<<CS20);
            // Prescaller: N = 1024, f = 16 MHz / (1024 * 256) = 61.035156 Hz            
        }
		if(FULL_MENU)
            SET_CNT = SET_CNT_MAX;
     c7c:	80 93 62 00 	sts	0x0062, r24
	/*    */
	
	/*    OC2  Buzzer */
	BUZZ_CFG = BUZZER;
     c80:	85 b5       	in	r24, 0x25	; 37
     c82:	80 93 70 01 	sts	0x0170, r24
	
	/*  Buzzer */
	BUZZER = 0;
     c86:	15 bc       	out	0x25, r1	; 37

	/*     Easter Egg */
	if(CHECKBIT(PINC, PC4) == 0)
     c88:	9c 99       	sbic	0x13, 4	; 19
     c8a:	04 c0       	rjmp	.+8      	; 0xc94 <startup+0x5e>
		enable_eegg = True;
     c8c:	81 e0       	ldi	r24, 0x01	; 1
     c8e:	80 93 83 01 	sts	0x0183, r24
     c92:	02 c0       	rjmp	.+4      	; 0xc98 <startup+0x62>
	else
		enable_eegg = False;
     c94:	10 92 83 01 	sts	0x0183, r1

	/*    EEPROM */
	eeprom_load();		
     c98:	91 de       	rcall	.-734    	; 0x9bc <eeprom_load>

    /*      */
    LIGHTNESS = set_light;
     c9a:	80 91 7a 01 	lds	r24, 0x017A
     c9e:	90 e0       	ldi	r25, 0x00	; 0
     ca0:	9b bd       	out	0x2b, r25	; 43
     ca2:	8a bd       	out	0x2a, r24	; 42
    CONTRAST  = set_contrast;
     ca4:	80 91 79 01 	lds	r24, 0x0179
     ca8:	90 e0       	ldi	r25, 0x00	; 0
     caa:	99 bd       	out	0x29, r25	; 41
     cac:	88 bd       	out	0x28, r24	; 40
        |01|  |  |  |  | S| E| T| T| I| N| G| S|  |  |  |  |
        |02|  |  |  |  |  |  |  |  |  |  |  |  |  |  |  |  |               
    */

    /*   */
    lcd_init();
     cae:	95 dc       	rcall	.-1750   	; 0x5da <lcd_init>
    lcd_clrscr();
     cb0:	6b da       	rcall	.-2858   	; 0x188 <lcd_clrscr>

	/*      */
	lcd_goto(1, 0);
     cb2:	60 e0       	ldi	r22, 0x00	; 0
     cb4:	81 e0       	ldi	r24, 0x01	; 1
     cb6:	72 da       	rcall	.-2844   	; 0x19c <lcd_goto>
	lcd_prints("\tTemp. sensors");
     cb8:	8a ea       	ldi	r24, 0xAA	; 170
     cba:	90 e0       	ldi	r25, 0x00	; 0
     cbc:	88 da       	rcall	.-2800   	; 0x1ce <lcd_prints>
	lcd_goto(2, 0);
     cbe:	60 e0       	ldi	r22, 0x00	; 0
     cc0:	82 e0       	ldi	r24, 0x02	; 2
     cc2:	6c da       	rcall	.-2856   	; 0x19c <lcd_goto>
	lcd_prints("\tdetecting...");
     cc4:	89 eb       	ldi	r24, 0xB9	; 185
     cc6:	90 e0       	ldi	r25, 0x00	; 0
     cc8:	82 da       	rcall	.-2812   	; 0x1ce <lcd_prints>

	/*   1-Wire */
	OWI_Init(BUS);
     cca:	88 e0       	ldi	r24, 0x08	; 8
     ccc:	f1 dd       	rcall	.-1054   	; 0x8b0 <OWI_Init>
    
    /*     */
    while(searchFlag != SENSORS_FOUND)
     cce:	80 91 86 01 	lds	r24, 0x0186
     cd2:	8f 3f       	cpi	r24, 0xFF	; 255
     cd4:	29 f0       	breq	.+10     	; 0xce0 <startup+0xaa>
        ds18b20_search();
     cd6:	96 df       	rcall	.-212    	; 0xc04 <ds18b20_search>

	/*   1-Wire */
	OWI_Init(BUS);
    
    /*     */
    while(searchFlag != SENSORS_FOUND)
     cd8:	80 91 86 01 	lds	r24, 0x0186
     cdc:	8f 3f       	cpi	r24, 0xFF	; 255
     cde:	d9 f7       	brne	.-10     	; 0xcd6 <startup+0xa0>
        ds18b20_search();
    dev_searching = False;
     ce0:	10 92 63 00 	sts	0x0063, r1
    
	/*      */
	lcd_clrscr();
     ce4:	51 da       	rcall	.-2910   	; 0x188 <lcd_clrscr>
    lcd_goto(1, 0);
     ce6:	60 e0       	ldi	r22, 0x00	; 0
     ce8:	81 e0       	ldi	r24, 0x01	; 1
     cea:	58 da       	rcall	.-2896   	; 0x19c <lcd_goto>
	lcd_prints("\tTo calibrate");
     cec:	87 ec       	ldi	r24, 0xC7	; 199
     cee:	90 e0       	ldi	r25, 0x00	; 0
     cf0:	6e da       	rcall	.-2852   	; 0x1ce <lcd_prints>
	lcd_goto(2, 0);
     cf2:	60 e0       	ldi	r22, 0x00	; 0
     cf4:	82 e0       	ldi	r24, 0x02	; 2
     cf6:	52 da       	rcall	.-2908   	; 0x19c <lcd_goto>
	lcd_prints("\tPress \"MODE\"");	
     cf8:	85 ed       	ldi	r24, 0xD5	; 213
     cfa:	90 e0       	ldi	r25, 0x00	; 0
     cfc:	68 da       	rcall	.-2864   	; 0x1ce <lcd_prints>
     cfe:	08 95       	ret

00000d00 <settings>:
	*/
}
void settings()
{
    /*    */
    lcd_goto(1, 0);
     d00:	60 e0       	ldi	r22, 0x00	; 0
     d02:	81 e0       	ldi	r24, 0x01	; 1
     d04:	4b da       	rcall	.-2922   	; 0x19c <lcd_goto>
    lcd_prints("\t\tSETTINGS");  
     d06:	83 ee       	ldi	r24, 0xE3	; 227
     d08:	90 e0       	ldi	r25, 0x00	; 0
     d0a:	61 da       	rcall	.-2878   	; 0x1ce <lcd_prints>
	lcd_goto(2, 0);
     d0c:	60 e0       	ldi	r22, 0x00	; 0
     d0e:	82 e0       	ldi	r24, 0x02	; 2
     d10:	45 da       	rcall	.-2934   	; 0x19c <lcd_goto>
	switch(option)
     d12:	80 91 81 01 	lds	r24, 0x0181
     d16:	90 e0       	ldi	r25, 0x00	; 0
     d18:	87 30       	cpi	r24, 0x07	; 7
     d1a:	91 05       	cpc	r25, r1
     d1c:	08 f0       	brcs	.+2      	; 0xd20 <settings+0x20>
     d1e:	a4 c0       	rjmp	.+328    	; 0xe68 <settings+0x168>
     d20:	fc 01       	movw	r30, r24
     d22:	ed 5e       	subi	r30, 0xED	; 237
     d24:	ff 4f       	sbci	r31, 0xFF	; 255
     d26:	09 94       	ijmp
    {
	    case SET_TMP:
			//  - 
			lcd_prints("\t ");
     d28:	87 e0       	ldi	r24, 0x07	; 7
     d2a:	91 e0       	ldi	r25, 0x01	; 1
     d2c:	50 da       	rcall	.-2912   	; 0x1ce <lcd_prints>
			lcd_putc(1);
     d2e:	81 e0       	ldi	r24, 0x01	; 1
     d30:	78 da       	rcall	.-2832   	; 0x222 <lcd_putc>
			lcd_prints("max: ");
     d32:	8e ee       	ldi	r24, 0xEE	; 238
     d34:	90 e0       	ldi	r25, 0x00	; 0
     d36:	4b da       	rcall	.-2922   	; 0x1ce <lcd_prints>
			lcd_numTOstr(set_max_tmp, 2);
     d38:	80 91 80 01 	lds	r24, 0x0180
     d3c:	62 e0       	ldi	r22, 0x02	; 2
     d3e:	90 e0       	ldi	r25, 0x00	; 0
     d40:	31 db       	rcall	.-2462   	; 0x3a4 <lcd_numTOstr>
			lcd_putc(0);
     d42:	80 e0       	ldi	r24, 0x00	; 0
     d44:	6e da       	rcall	.-2852   	; 0x222 <lcd_putc>
			lcd_prints("C");
     d46:	84 ef       	ldi	r24, 0xF4	; 244
     d48:	90 e0       	ldi	r25, 0x00	; 0
     d4a:	41 da       	rcall	.-2942   	; 0x1ce <lcd_prints>
			break;
     d4c:	08 95       	ret
	    case SET_PWR:
			//  - 
			lcd_prints("\t");
     d4e:	82 e0       	ldi	r24, 0x02	; 2
     d50:	91 e0       	ldi	r25, 0x01	; 1
     d52:	3d da       	rcall	.-2950   	; 0x1ce <lcd_prints>
			lcd_putc(2);
     d54:	82 e0       	ldi	r24, 0x02	; 2
     d56:	65 da       	rcall	.-2870   	; 0x222 <lcd_putc>
			lcd_prints("max: ");
     d58:	8e ee       	ldi	r24, 0xEE	; 238
     d5a:	90 e0       	ldi	r25, 0x00	; 0
     d5c:	38 da       	rcall	.-2960   	; 0x1ce <lcd_prints>
			lcd_numTOstr(set_max_pwr, 4);
     d5e:	64 e0       	ldi	r22, 0x04	; 4
     d60:	80 91 7e 01 	lds	r24, 0x017E
     d64:	90 91 7f 01 	lds	r25, 0x017F
     d68:	1d db       	rcall	.-2502   	; 0x3a4 <lcd_numTOstr>
			lcd_prints(" W");
     d6a:	86 ef       	ldi	r24, 0xF6	; 246
     d6c:	90 e0       	ldi	r25, 0x00	; 0
     d6e:	2f da       	rcall	.-2978   	; 0x1ce <lcd_prints>
			break;
     d70:	08 95       	ret
	    case SET_VTG:
			//   
			lcd_prints("\t ");
     d72:	87 e0       	ldi	r24, 0x07	; 7
     d74:	91 e0       	ldi	r25, 0x01	; 1
     d76:	2b da       	rcall	.-2986   	; 0x1ce <lcd_prints>
			lcd_putc(4);
     d78:	84 e0       	ldi	r24, 0x04	; 4
     d7a:	53 da       	rcall	.-2906   	; 0x222 <lcd_putc>
			lcd_prints("in: ");
     d7c:	89 ef       	ldi	r24, 0xF9	; 249
     d7e:	90 e0       	ldi	r25, 0x00	; 0
     d80:	26 da       	rcall	.-2996   	; 0x1ce <lcd_prints>
			lcd_numTOstr(set_vtg, 3);
     d82:	80 91 7d 01 	lds	r24, 0x017D
     d86:	63 e0       	ldi	r22, 0x03	; 3
     d88:	90 e0       	ldi	r25, 0x00	; 0
     d8a:	0c db       	rcall	.-2536   	; 0x3a4 <lcd_numTOstr>
			lcd_prints(" V");
     d8c:	8e ef       	ldi	r24, 0xFE	; 254
     d8e:	90 e0       	ldi	r25, 0x00	; 0
     d90:	1e da       	rcall	.-3012   	; 0x1ce <lcd_prints>
			break;
     d92:	08 95       	ret
	    case SET_TIM:
			//     (  )
			lcd_prints("\t\t");
     d94:	81 e0       	ldi	r24, 0x01	; 1
     d96:	91 e0       	ldi	r25, 0x01	; 1
     d98:	1a da       	rcall	.-3020   	; 0x1ce <lcd_prints>
			lcd_putc(3);
     d9a:	83 e0       	ldi	r24, 0x03	; 3
     d9c:	42 da       	rcall	.-2940   	; 0x222 <lcd_putc>
			lcd_prints(": ");
     d9e:	8b ef       	ldi	r24, 0xFB	; 251
     da0:	90 e0       	ldi	r25, 0x00	; 0
     da2:	15 da       	rcall	.-3030   	; 0x1ce <lcd_prints>
			lcd_numTOstr(set_timer/3600, 2);
     da4:	80 91 7b 01 	lds	r24, 0x017B
     da8:	90 91 7c 01 	lds	r25, 0x017C
     dac:	60 e1       	ldi	r22, 0x10	; 16
     dae:	7e e0       	ldi	r23, 0x0E	; 14
     db0:	9a d4       	rcall	.+2356   	; 0x16e6 <__udivmodhi4>
     db2:	cb 01       	movw	r24, r22
     db4:	62 e0       	ldi	r22, 0x02	; 2
     db6:	f6 da       	rcall	.-2580   	; 0x3a4 <lcd_numTOstr>
			lcd_prints(":");
     db8:	84 e0       	ldi	r24, 0x04	; 4
     dba:	91 e0       	ldi	r25, 0x01	; 1
     dbc:	08 da       	rcall	.-3056   	; 0x1ce <lcd_prints>
			lcd_numTOstr((set_timer/60)%60, 2);
     dbe:	20 91 7b 01 	lds	r18, 0x017B
     dc2:	30 91 7c 01 	lds	r19, 0x017C
     dc6:	a9 e8       	ldi	r26, 0x89	; 137
     dc8:	b8 e8       	ldi	r27, 0x88	; 136
     dca:	df d4       	rcall	.+2494   	; 0x178a <__umulhisi3>
     dcc:	ac 01       	movw	r20, r24
     dce:	56 95       	lsr	r21
     dd0:	47 95       	ror	r20
     dd2:	52 95       	swap	r21
     dd4:	42 95       	swap	r20
     dd6:	4f 70       	andi	r20, 0x0F	; 15
     dd8:	45 27       	eor	r20, r21
     dda:	5f 70       	andi	r21, 0x0F	; 15
     ddc:	45 27       	eor	r20, r21
     dde:	9a 01       	movw	r18, r20
     de0:	d4 d4       	rcall	.+2472   	; 0x178a <__umulhisi3>
     de2:	96 95       	lsr	r25
     de4:	87 95       	ror	r24
     de6:	92 95       	swap	r25
     de8:	82 95       	swap	r24
     dea:	8f 70       	andi	r24, 0x0F	; 15
     dec:	89 27       	eor	r24, r25
     dee:	9f 70       	andi	r25, 0x0F	; 15
     df0:	89 27       	eor	r24, r25
     df2:	6c e3       	ldi	r22, 0x3C	; 60
     df4:	68 9f       	mul	r22, r24
     df6:	90 01       	movw	r18, r0
     df8:	69 9f       	mul	r22, r25
     dfa:	30 0d       	add	r19, r0
     dfc:	11 24       	eor	r1, r1
     dfe:	62 e0       	ldi	r22, 0x02	; 2
     e00:	ca 01       	movw	r24, r20
     e02:	82 1b       	sub	r24, r18
     e04:	93 0b       	sbc	r25, r19
     e06:	ce da       	rcall	.-2660   	; 0x3a4 <lcd_numTOstr>
			break;
     e08:	08 95       	ret
	    case SET_BUZ:
			//   
			lcd_prints("\t\t ");
     e0a:	86 e0       	ldi	r24, 0x06	; 6
     e0c:	91 e0       	ldi	r25, 0x01	; 1
     e0e:	df d9       	rcall	.-3138   	; 0x1ce <lcd_prints>
			lcd_putc(7);
     e10:	87 e0       	ldi	r24, 0x07	; 7
     e12:	07 da       	rcall	.-3058   	; 0x222 <lcd_putc>
			lcd_prints(": ");
     e14:	8b ef       	ldi	r24, 0xFB	; 251
     e16:	90 e0       	ldi	r25, 0x00	; 0
     e18:	da d9       	rcall	.-3148   	; 0x1ce <lcd_prints>
			if(set_buzzer)
     e1a:	80 91 60 00 	lds	r24, 0x0060
     e1e:	88 23       	and	r24, r24
     e20:	21 f0       	breq	.+8      	; 0xe2a <settings+0x12a>
				lcd_prints("ON ");
     e22:	8a e0       	ldi	r24, 0x0A	; 10
     e24:	91 e0       	ldi	r25, 0x01	; 1
     e26:	d3 d9       	rcall	.-3162   	; 0x1ce <lcd_prints>
     e28:	08 95       	ret
			else
				lcd_prints("OFF");
     e2a:	8e e0       	ldi	r24, 0x0E	; 14
     e2c:	91 e0       	ldi	r25, 0x01	; 1
     e2e:	cf d9       	rcall	.-3170   	; 0x1ce <lcd_prints>
     e30:	08 95       	ret
			break;
		case SET_LUM:
			//   
			lcd_prints("\t\t ");
     e32:	86 e0       	ldi	r24, 0x06	; 6
     e34:	91 e0       	ldi	r25, 0x01	; 1
     e36:	cb d9       	rcall	.-3178   	; 0x1ce <lcd_prints>
			lcd_putc(5);
     e38:	85 e0       	ldi	r24, 0x05	; 5
     e3a:	f3 d9       	rcall	.-3098   	; 0x222 <lcd_putc>
			lcd_prints(": ");
     e3c:	8b ef       	ldi	r24, 0xFB	; 251
     e3e:	90 e0       	ldi	r25, 0x00	; 0
     e40:	c6 d9       	rcall	.-3188   	; 0x1ce <lcd_prints>
			lcd_numTOstr(set_light, 3);
     e42:	80 91 7a 01 	lds	r24, 0x017A
     e46:	63 e0       	ldi	r22, 0x03	; 3
     e48:	90 e0       	ldi	r25, 0x00	; 0
     e4a:	ac da       	rcall	.-2728   	; 0x3a4 <lcd_numTOstr>
			break;
     e4c:	08 95       	ret
		case SET_CTR:
			//   
			lcd_prints("\t\t ");
     e4e:	86 e0       	ldi	r24, 0x06	; 6
     e50:	91 e0       	ldi	r25, 0x01	; 1
     e52:	bd d9       	rcall	.-3206   	; 0x1ce <lcd_prints>
			lcd_putc(6);
     e54:	86 e0       	ldi	r24, 0x06	; 6
     e56:	e5 d9       	rcall	.-3126   	; 0x222 <lcd_putc>
			lcd_prints(": ");
     e58:	8b ef       	ldi	r24, 0xFB	; 251
     e5a:	90 e0       	ldi	r25, 0x00	; 0
     e5c:	b8 d9       	rcall	.-3216   	; 0x1ce <lcd_prints>
			lcd_numTOstr(set_contrast, 3);
     e5e:	80 91 79 01 	lds	r24, 0x0179
     e62:	63 e0       	ldi	r22, 0x03	; 3
     e64:	90 e0       	ldi	r25, 0x00	; 0
     e66:	9e da       	rcall	.-2756   	; 0x3a4 <lcd_numTOstr>
     e68:	08 95       	ret

00000e6a <timer_reset>:
		BUZZER = 0;
}
void timer_reset()
{
	/*    */
	timer_enable = False;
     e6a:	10 92 76 01 	sts	0x0176, r1
	timer_out = False;
     e6e:	10 92 75 01 	sts	0x0175, r1
	timer_secs = 0;	
     e72:	10 92 74 01 	sts	0x0174, r1
     e76:	10 92 73 01 	sts	0x0173, r1
     e7a:	08 95       	ret

00000e7c <ds18b20_read_temp>:
}
unsigned char ds18b20_read_temp(unsigned char bus, unsigned char * id, unsigned int* temperature)
{
     e7c:	bf 92       	push	r11
     e7e:	cf 92       	push	r12
     e80:	df 92       	push	r13
     e82:	ef 92       	push	r14
     e84:	ff 92       	push	r15
     e86:	0f 93       	push	r16
     e88:	1f 93       	push	r17
     e8a:	cf 93       	push	r28
     e8c:	df 93       	push	r29
     e8e:	cd b7       	in	r28, 0x3d	; 61
     e90:	de b7       	in	r29, 0x3e	; 62
     e92:	29 97       	sbiw	r28, 0x09	; 9
     e94:	0f b6       	in	r0, 0x3f	; 63
     e96:	f8 94       	cli
     e98:	de bf       	out	0x3e, r29	; 62
     e9a:	0f be       	out	0x3f, r0	; 63
     e9c:	cd bf       	out	0x3d, r28	; 61
     e9e:	b8 2e       	mov	r11, r24
     ea0:	8b 01       	movw	r16, r22
     ea2:	6a 01       	movw	r12, r20
	unsigned char scratchpad[9];
    unsigned char i;
    /*   .
	      1-Wire   .
          . */
    OWI_DetectPresence(bus);
     ea4:	67 dd       	rcall	.-1330   	; 0x974 <OWI_DetectPresence>
    OWI_MatchRom(id, bus);
     ea6:	6b 2d       	mov	r22, r11
     ea8:	c8 01       	movw	r24, r16
     eaa:	1f dc       	rcall	.-1986   	; 0x6ea <OWI_MatchRom>
    OWI_SendByte(DS18B20_CONVERT_T, bus);
     eac:	6b 2d       	mov	r22, r11
     eae:	84 e4       	ldi	r24, 0x44	; 68
     eb0:	f6 db       	rcall	.-2068   	; 0x69e <OWI_SendByte>
    /*    */ 
    while(!OWI_ReadBit(bus));
     eb2:	8b 2d       	mov	r24, r11
     eb4:	3e dd       	rcall	.-1412   	; 0x932 <OWI_ReadBit>
     eb6:	88 23       	and	r24, r24
     eb8:	e1 f3       	breq	.-8      	; 0xeb2 <ds18b20_read_temp+0x36>
    /*   .
	       1-Wire   .
           .
            . */	
    OWI_DetectPresence(bus);
     eba:	8b 2d       	mov	r24, r11
     ebc:	5b dd       	rcall	.-1354   	; 0x974 <OWI_DetectPresence>
    OWI_MatchRom(id, bus);
     ebe:	6b 2d       	mov	r22, r11
     ec0:	c8 01       	movw	r24, r16
     ec2:	13 dc       	rcall	.-2010   	; 0x6ea <OWI_MatchRom>
    OWI_SendByte(DS18B20_READ_SCRATCHPAD, bus);
     ec4:	6b 2d       	mov	r22, r11
     ec6:	8e eb       	ldi	r24, 0xBE	; 190
     ec8:	ea db       	rcall	.-2092   	; 0x69e <OWI_SendByte>
     eca:	8e 01       	movw	r16, r28
     ecc:	0f 5f       	subi	r16, 0xFF	; 255
     ece:	1f 4f       	sbci	r17, 0xFF	; 255
     ed0:	7e 01       	movw	r14, r28
     ed2:	8a e0       	ldi	r24, 0x0A	; 10
     ed4:	e8 0e       	add	r14, r24
     ed6:	f1 1c       	adc	r15, r1
    for(i=0; i<=8; i++)
		scratchpad[i] = OWI_ReceiveByte(bus);
     ed8:	8b 2d       	mov	r24, r11
     eda:	f5 db       	rcall	.-2070   	; 0x6c6 <OWI_ReceiveByte>
     edc:	f8 01       	movw	r30, r16
     ede:	81 93       	st	Z+, r24
     ee0:	8f 01       	movw	r16, r30
           .
            . */	
    OWI_DetectPresence(bus);
    OWI_MatchRom(id, bus);
    OWI_SendByte(DS18B20_READ_SCRATCHPAD, bus);
    for(i=0; i<=8; i++)
     ee2:	ee 15       	cp	r30, r14
     ee4:	ff 05       	cpc	r31, r15
     ee6:	c1 f7       	brne	.-16     	; 0xed8 <ds18b20_read_temp+0x5c>
		scratchpad[i] = OWI_ReceiveByte(bus);
    if(OWI_CheckScratchPadCRC(scratchpad) != OWI_CRC_OK)
     ee8:	ce 01       	movw	r24, r28
     eea:	01 96       	adiw	r24, 0x01	; 1
     eec:	b9 db       	rcall	.-2190   	; 0x660 <OWI_CheckScratchPadCRC>
     eee:	81 11       	cpse	r24, r1
     ef0:	0a c0       	rjmp	.+20     	; 0xf06 <ds18b20_read_temp+0x8a>
		return READ_CRC_ERROR;
    
    *temperature =(unsigned int)scratchpad[0];
    *temperature|=((unsigned int)scratchpad[1]<<8);
     ef2:	2a 81       	ldd	r18, Y+2	; 0x02
     ef4:	30 e0       	ldi	r19, 0x00	; 0
     ef6:	32 2f       	mov	r19, r18
     ef8:	22 27       	eor	r18, r18
    for(i=0; i<=8; i++)
		scratchpad[i] = OWI_ReceiveByte(bus);
    if(OWI_CheckScratchPadCRC(scratchpad) != OWI_CRC_OK)
		return READ_CRC_ERROR;
    
    *temperature =(unsigned int)scratchpad[0];
     efa:	99 81       	ldd	r25, Y+1	; 0x01
    *temperature|=((unsigned int)scratchpad[1]<<8);
     efc:	29 2b       	or	r18, r25
     efe:	f6 01       	movw	r30, r12
     f00:	31 83       	std	Z+1, r19	; 0x01
     f02:	20 83       	st	Z, r18
    
    return READ_SUCCESSFUL;
     f04:	01 c0       	rjmp	.+2      	; 0xf08 <ds18b20_read_temp+0x8c>
    OWI_MatchRom(id, bus);
    OWI_SendByte(DS18B20_READ_SCRATCHPAD, bus);
    for(i=0; i<=8; i++)
		scratchpad[i] = OWI_ReceiveByte(bus);
    if(OWI_CheckScratchPadCRC(scratchpad) != OWI_CRC_OK)
		return READ_CRC_ERROR;
     f06:	81 e0       	ldi	r24, 0x01	; 1
    
    *temperature =(unsigned int)scratchpad[0];
    *temperature|=((unsigned int)scratchpad[1]<<8);
    
    return READ_SUCCESSFUL;
}
     f08:	29 96       	adiw	r28, 0x09	; 9
     f0a:	0f b6       	in	r0, 0x3f	; 63
     f0c:	f8 94       	cli
     f0e:	de bf       	out	0x3e, r29	; 62
     f10:	0f be       	out	0x3f, r0	; 63
     f12:	cd bf       	out	0x3d, r28	; 61
     f14:	df 91       	pop	r29
     f16:	cf 91       	pop	r28
     f18:	1f 91       	pop	r17
     f1a:	0f 91       	pop	r16
     f1c:	ff 90       	pop	r15
     f1e:	ef 90       	pop	r14
     f20:	df 90       	pop	r13
     f22:	cf 90       	pop	r12
     f24:	bf 90       	pop	r11
     f26:	08 95       	ret

00000f28 <ds18b20_get_temp>:
uint8_t ds18b20_get_temp(uint8_t dev_id)
{
     f28:	cf 93       	push	r28
     f2a:	df 93       	push	r29
     f2c:	00 d0       	rcall	.+0      	; 0xf2e <ds18b20_get_temp+0x6>
     f2e:	cd b7       	in	r28, 0x3d	; 61
     f30:	de b7       	in	r29, 0x3e	; 62
	/*         */
    /*    ""    */
    unsigned int temperature = 0;
     f32:	1a 82       	std	Y+2, r1	; 0x02
     f34:	19 82       	std	Y+1, r1	; 0x01
    /*     */
    uint8_t tmp = 0;
    /*   */
    crcFlag = ds18b20_read_temp(BUS, allDevices[dev_id].id, &temperature);
     f36:	28 e0       	ldi	r18, 0x08	; 8
     f38:	82 9f       	mul	r24, r18
     f3a:	c0 01       	movw	r24, r0
     f3c:	11 24       	eor	r1, r1
     f3e:	bc 01       	movw	r22, r24
     f40:	61 57       	subi	r22, 0x71	; 113
     f42:	7e 4f       	sbci	r23, 0xFE	; 254
     f44:	ae 01       	movw	r20, r28
     f46:	4f 5f       	subi	r20, 0xFF	; 255
     f48:	5f 4f       	sbci	r21, 0xFF	; 255
     f4a:	88 e0       	ldi	r24, 0x08	; 8
     f4c:	97 df       	rcall	.-210    	; 0xe7c <ds18b20_read_temp>
     f4e:	80 93 85 01 	sts	0x0185, r24
	if(crcFlag != READ_CRC_ERROR)
     f52:	81 30       	cpi	r24, 0x01	; 1
     f54:	91 f0       	breq	.+36     	; 0xf7a <ds18b20_get_temp+0x52>
	{
        /*   ,   */
        if((temperature & 0x8000) != 0)
     f56:	89 81       	ldd	r24, Y+1	; 0x01
     f58:	9a 81       	ldd	r25, Y+2	; 0x02
     f5a:	99 23       	and	r25, r25
     f5c:	2c f4       	brge	.+10     	; 0xf68 <ds18b20_get_temp+0x40>
            temperature = ~temperature + 1;
     f5e:	91 95       	neg	r25
     f60:	81 95       	neg	r24
     f62:	91 09       	sbc	r25, r1
     f64:	9a 83       	std	Y+2, r25	; 0x02
     f66:	89 83       	std	Y+1, r24	; 0x01
        /*    */
        tmp = (uint8_t)(temperature>>4);
     f68:	89 81       	ldd	r24, Y+1	; 0x01
     f6a:	9a 81       	ldd	r25, Y+2	; 0x02
     f6c:	92 95       	swap	r25
     f6e:	82 95       	swap	r24
     f70:	8f 70       	andi	r24, 0x0F	; 15
     f72:	89 27       	eor	r24, r25
     f74:	9f 70       	andi	r25, 0x0F	; 15
     f76:	89 27       	eor	r24, r25
     f78:	01 c0       	rjmp	.+2      	; 0xf7c <ds18b20_get_temp+0x54>
{
	/*         */
    /*    ""    */
    unsigned int temperature = 0;
    /*     */
    uint8_t tmp = 0;
     f7a:	80 e0       	ldi	r24, 0x00	; 0
        /*    */
        // 	tmp = (unsigned char)(temperature&15);
        // 	tmp = (tmp>>1) + (tmp>>3);
    }  
    return tmp;
}
     f7c:	0f 90       	pop	r0
     f7e:	0f 90       	pop	r0
     f80:	df 91       	pop	r29
     f82:	cf 91       	pop	r28
     f84:	08 95       	ret

00000f86 <get_adc_value>:
uint16_t get_adc_value(uint16_t count)
{
     f86:	af 92       	push	r10
     f88:	bf 92       	push	r11
     f8a:	cf 92       	push	r12
     f8c:	df 92       	push	r13
     f8e:	ef 92       	push	r14
     f90:	ff 92       	push	r15
     f92:	0f 93       	push	r16
     f94:	1f 93       	push	r17
     f96:	cf 93       	push	r28
     f98:	df 93       	push	r29
     f9a:	8c 01       	movw	r16, r24
	/*      */
	adc_value   = 0;
     f9c:	10 92 67 01 	sts	0x0167, r1
     fa0:	10 92 68 01 	sts	0x0168, r1
     fa4:	10 92 69 01 	sts	0x0169, r1
     fa8:	10 92 6a 01 	sts	0x016A, r1
	adc_counter = 0;
     fac:	10 92 66 01 	sts	0x0166, r1
     fb0:	10 92 65 01 	sts	0x0165, r1
	unsigned long adc_values_accumulator = 0;
	uint16_t bar_count = count/NUMBER_OF_BAR_ELEMENTS;
     fb4:	9c 01       	movw	r18, r24
     fb6:	ad ec       	ldi	r26, 0xCD	; 205
     fb8:	bc ec       	ldi	r27, 0xCC	; 204
     fba:	e7 d3       	rcall	.+1998   	; 0x178a <__umulhisi3>
     fbc:	5c 01       	movw	r10, r24
     fbe:	00 24       	eor	r0, r0
     fc0:	aa 0c       	add	r10, r10
     fc2:	bb 1c       	adc	r11, r11
     fc4:	00 1c       	adc	r0, r0
     fc6:	aa 0c       	add	r10, r10
     fc8:	bb 1c       	adc	r11, r11
     fca:	00 1c       	adc	r0, r0
     fcc:	ab 2c       	mov	r10, r11
     fce:	b0 2c       	mov	r11, r0
	/*         (   ) */
	for(uint16_t i=0; i<count; i++)
     fd0:	01 15       	cp	r16, r1
     fd2:	11 05       	cpc	r17, r1
     fd4:	01 f1       	breq	.+64     	; 0x1016 <get_adc_value+0x90>
     fd6:	c0 e0       	ldi	r28, 0x00	; 0
     fd8:	d0 e0       	ldi	r29, 0x00	; 0
uint16_t get_adc_value(uint16_t count)
{
	/*      */
	adc_value   = 0;
	adc_counter = 0;
	unsigned long adc_values_accumulator = 0;
     fda:	c1 2c       	mov	r12, r1
     fdc:	d1 2c       	mov	r13, r1
     fde:	76 01       	movw	r14, r12
	uint16_t bar_count = count/NUMBER_OF_BAR_ELEMENTS;
	/*         (   ) */
	for(uint16_t i=0; i<count; i++)
	{
		ADCSRA|=(1<<ADSC);
     fe0:	36 9a       	sbi	0x06, 6	; 6
		adc_values_accumulator += adc_value;
     fe2:	80 91 67 01 	lds	r24, 0x0167
     fe6:	90 91 68 01 	lds	r25, 0x0168
     fea:	a0 91 69 01 	lds	r26, 0x0169
     fee:	b0 91 6a 01 	lds	r27, 0x016A
     ff2:	c8 0e       	add	r12, r24
     ff4:	d9 1e       	adc	r13, r25
     ff6:	ea 1e       	adc	r14, r26
     ff8:	fb 1e       	adc	r15, r27
		if(mode == CAL_MODE)
     ffa:	80 91 82 01 	lds	r24, 0x0182
     ffe:	83 30       	cpi	r24, 0x03	; 3
    1000:	29 f4       	brne	.+10     	; 0x100c <get_adc_value+0x86>
			lcd_drawbar(i/bar_count);
    1002:	ce 01       	movw	r24, r28
    1004:	b5 01       	movw	r22, r10
    1006:	6f d3       	rcall	.+1758   	; 0x16e6 <__udivmodhi4>
    1008:	86 2f       	mov	r24, r22
    100a:	76 da       	rcall	.-2836   	; 0x4f8 <lcd_drawbar>
	adc_value   = 0;
	adc_counter = 0;
	unsigned long adc_values_accumulator = 0;
	uint16_t bar_count = count/NUMBER_OF_BAR_ELEMENTS;
	/*         (   ) */
	for(uint16_t i=0; i<count; i++)
    100c:	21 96       	adiw	r28, 0x01	; 1
    100e:	c0 17       	cp	r28, r16
    1010:	d1 07       	cpc	r29, r17
    1012:	31 f7       	brne	.-52     	; 0xfe0 <get_adc_value+0x5a>
    1014:	03 c0       	rjmp	.+6      	; 0x101c <get_adc_value+0x96>
uint16_t get_adc_value(uint16_t count)
{
	/*      */
	adc_value   = 0;
	adc_counter = 0;
	unsigned long adc_values_accumulator = 0;
    1016:	c1 2c       	mov	r12, r1
    1018:	d1 2c       	mov	r13, r1
    101a:	76 01       	movw	r14, r12
		adc_values_accumulator += adc_value;
		if(mode == CAL_MODE)
			lcd_drawbar(i/bar_count);
	}
	/*   */
	return adc_values_accumulator/count;
    101c:	98 01       	movw	r18, r16
    101e:	40 e0       	ldi	r20, 0x00	; 0
    1020:	50 e0       	ldi	r21, 0x00	; 0
    1022:	c7 01       	movw	r24, r14
    1024:	b6 01       	movw	r22, r12
    1026:	73 d3       	rcall	.+1766   	; 0x170e <__udivmodsi4>
}
    1028:	c9 01       	movw	r24, r18
    102a:	df 91       	pop	r29
    102c:	cf 91       	pop	r28
    102e:	1f 91       	pop	r17
    1030:	0f 91       	pop	r16
    1032:	ff 90       	pop	r15
    1034:	ef 90       	pop	r14
    1036:	df 90       	pop	r13
    1038:	cf 90       	pop	r12
    103a:	bf 90       	pop	r11
    103c:	af 90       	pop	r10
    103e:	08 95       	ret

00001040 <values_refresh>:
	/*    ,   .
	   ,        / . */
	/*     */
    /* TESTS ARE THERE */
        //cur_power = get_power_value();
        cur_power = get_adc_value(POWER_GET_CNT);
    1040:	8a e0       	ldi	r24, 0x0A	; 10
    1042:	90 e0       	ldi	r25, 0x00	; 0
    1044:	a0 df       	rcall	.-192    	; 0xf86 <get_adc_value>
    1046:	90 93 6d 01 	sts	0x016D, r25
    104a:	80 93 6c 01 	sts	0x016C, r24
    /* TESTS ARE THERE */
	/*    */
    CH1_temp = ds18b20_get_temp(0);
    104e:	80 e0       	ldi	r24, 0x00	; 0
    1050:	6b df       	rcall	.-298    	; 0xf28 <ds18b20_get_temp>
    1052:	80 93 6f 01 	sts	0x016F, r24
    CH2_temp = ds18b20_get_temp(1);
    1056:	81 e0       	ldi	r24, 0x01	; 1
    1058:	67 df       	rcall	.-306    	; 0xf28 <ds18b20_get_temp>
    105a:	80 93 6e 01 	sts	0x016E, r24
	/*        */
	if(cur_power >= set_max_pwr)
    105e:	20 91 6c 01 	lds	r18, 0x016C
    1062:	30 91 6d 01 	lds	r19, 0x016D
    1066:	80 91 7e 01 	lds	r24, 0x017E
    106a:	90 91 7f 01 	lds	r25, 0x017F
    106e:	28 17       	cp	r18, r24
    1070:	39 07       	cpc	r19, r25
    1072:	58 f0       	brcs	.+22     	; 0x108a <values_refresh+0x4a>
	{
        overpower = True;
    1074:	81 e0       	ldi	r24, 0x01	; 1
    1076:	80 93 6b 01 	sts	0x016B, r24
		timer_reset();		
    107a:	f7 de       	rcall	.-530    	; 0xe6a <timer_reset>
		load_control(0, Off);
    107c:	60 e0       	ldi	r22, 0x00	; 0
    107e:	80 e0       	ldi	r24, 0x00	; 0
    1080:	a8 dd       	rcall	.-1200   	; 0xbd2 <load_control>
}
void buzz(uint8_t state)
{
	/*  /   (Buzzer) */
	if(state)
		BUZZER = BUZZ_CFG;
    1082:	80 91 70 01 	lds	r24, 0x0170
    1086:	85 bd       	out	0x25, r24	; 37
    1088:	0c c0       	rjmp	.+24     	; 0x10a2 <values_refresh+0x62>
		load_control(0, Off);
		buzz(On);
	}
	else
	{
		if(overpower)
    108a:	80 91 6b 01 	lds	r24, 0x016B
    108e:	88 23       	and	r24, r24
    1090:	61 f0       	breq	.+24     	; 0x10aa <values_refresh+0x6a>
        {
            lcd_clrscr();
    1092:	7a d8       	rcall	.-3852   	; 0x188 <lcd_clrscr>
            overpower = False;
    1094:	10 92 6b 01 	sts	0x016B, r1
		    if(!timer_out)
    1098:	80 91 75 01 	lds	r24, 0x0175
    109c:	81 11       	cpse	r24, r1
    109e:	05 c0       	rjmp	.+10     	; 0x10aa <values_refresh+0x6a>
{
	/*  /   (Buzzer) */
	if(state)
		BUZZER = BUZZ_CFG;
	else
		BUZZER = 0;
    10a0:	15 bc       	out	0x25, r1	; 37
		    if(!timer_out)
			    buzz(Off);
        }        
	}
	/*          */
	if(!overpower)
    10a2:	80 91 6b 01 	lds	r24, 0x016B
    10a6:	81 11       	cpse	r24, r1
    10a8:	31 c0       	rjmp	.+98     	; 0x110c <values_refresh+0xcc>
	{
		/*    = 0 ()     () */
		if((set_timer == 0) || (timer_enable))
    10aa:	80 91 7b 01 	lds	r24, 0x017B
    10ae:	90 91 7c 01 	lds	r25, 0x017C
    10b2:	89 2b       	or	r24, r25
    10b4:	21 f0       	breq	.+8      	; 0x10be <values_refresh+0x7e>
    10b6:	80 91 76 01 	lds	r24, 0x0176
    10ba:	88 23       	and	r24, r24
    10bc:	51 f1       	breq	.+84     	; 0x1112 <values_refresh+0xd2>
		{
			if(CH1_temp < set_max_tmp)
    10be:	80 91 6f 01 	lds	r24, 0x016F
    10c2:	90 91 80 01 	lds	r25, 0x0180
    10c6:	89 17       	cp	r24, r25
    10c8:	50 f4       	brcc	.+20     	; 0x10de <values_refresh+0x9e>
            {
                if(CH1_temp != 0)
    10ca:	88 23       	and	r24, r24
    10cc:	21 f0       	breq	.+8      	; 0x10d6 <values_refresh+0x96>
				    load_control(1, On);
    10ce:	61 e0       	ldi	r22, 0x01	; 1
    10d0:	81 e0       	ldi	r24, 0x01	; 1
    10d2:	7f dd       	rcall	.-1282   	; 0xbd2 <load_control>
    10d4:	07 c0       	rjmp	.+14     	; 0x10e4 <values_refresh+0xa4>
                else
                    load_control(2, Off);                    
    10d6:	60 e0       	ldi	r22, 0x00	; 0
    10d8:	82 e0       	ldi	r24, 0x02	; 2
    10da:	7b dd       	rcall	.-1290   	; 0xbd2 <load_control>
    10dc:	03 c0       	rjmp	.+6      	; 0x10e4 <values_refresh+0xa4>
            }			
            else
				load_control(1, Off);
    10de:	60 e0       	ldi	r22, 0x00	; 0
    10e0:	81 e0       	ldi	r24, 0x01	; 1
    10e2:	77 dd       	rcall	.-1298   	; 0xbd2 <load_control>
			if(CH2_temp < set_max_tmp)
    10e4:	80 91 6e 01 	lds	r24, 0x016E
    10e8:	90 91 80 01 	lds	r25, 0x0180
    10ec:	89 17       	cp	r24, r25
    10ee:	50 f4       	brcc	.+20     	; 0x1104 <values_refresh+0xc4>
            {
                if(CH2_temp != 0)
    10f0:	88 23       	and	r24, r24
    10f2:	21 f0       	breq	.+8      	; 0x10fc <values_refresh+0xbc>
				    load_control(2, On);
    10f4:	61 e0       	ldi	r22, 0x01	; 1
    10f6:	82 e0       	ldi	r24, 0x02	; 2
    10f8:	6c dd       	rcall	.-1320   	; 0xbd2 <load_control>
    10fa:	0b c0       	rjmp	.+22     	; 0x1112 <values_refresh+0xd2>
                else
                    load_control(2, Off);
    10fc:	60 e0       	ldi	r22, 0x00	; 0
    10fe:	82 e0       	ldi	r24, 0x02	; 2
    1100:	68 dd       	rcall	.-1328   	; 0xbd2 <load_control>
    1102:	07 c0       	rjmp	.+14     	; 0x1112 <values_refresh+0xd2>
            }			
            else
				load_control(2, Off);
    1104:	60 e0       	ldi	r22, 0x00	; 0
    1106:	82 e0       	ldi	r24, 0x02	; 2
    1108:	64 dd       	rcall	.-1336   	; 0xbd2 <load_control>
    110a:	03 c0       	rjmp	.+6      	; 0x1112 <values_refresh+0xd2>
		}
	}
	else
		load_control(0, Off);
    110c:	60 e0       	ldi	r22, 0x00	; 0
    110e:	80 e0       	ldi	r24, 0x00	; 0
    1110:	60 dd       	rcall	.-1344   	; 0xbd2 <load_control>
	/*        */
	if(mode == SET_MODE)
    1112:	80 91 82 01 	lds	r24, 0x0182
    1116:	82 30       	cpi	r24, 0x02	; 2
    1118:	a1 f4       	brne	.+40     	; 0x1142 <values_refresh+0x102>
    {
        if(LIGHTNESS != set_light)
    111a:	2a b5       	in	r18, 0x2a	; 42
    111c:	3b b5       	in	r19, 0x2b	; 43
    111e:	80 91 7a 01 	lds	r24, 0x017A
    1122:	90 e0       	ldi	r25, 0x00	; 0
    1124:	28 17       	cp	r18, r24
    1126:	39 07       	cpc	r19, r25
    1128:	11 f0       	breq	.+4      	; 0x112e <values_refresh+0xee>
            LIGHTNESS = set_light;
    112a:	9b bd       	out	0x2b, r25	; 43
    112c:	8a bd       	out	0x2a, r24	; 42
        if(CONTRAST != set_contrast)
    112e:	28 b5       	in	r18, 0x28	; 40
    1130:	39 b5       	in	r19, 0x29	; 41
    1132:	80 91 79 01 	lds	r24, 0x0179
    1136:	90 e0       	ldi	r25, 0x00	; 0
    1138:	28 17       	cp	r18, r24
    113a:	39 07       	cpc	r19, r25
    113c:	11 f0       	breq	.+4      	; 0x1142 <values_refresh+0x102>
            CONTRAST = set_contrast;       
    113e:	99 bd       	out	0x29, r25	; 41
    1140:	88 bd       	out	0x28, r24	; 40
    1142:	08 95       	ret

00001144 <temp_out>:
    }	
}
void temp_out(uint8_t channel, uint8_t temp_value, uint8_t status)
{
    1144:	1f 93       	push	r17
    1146:	cf 93       	push	r28
    1148:	df 93       	push	r29
    114a:	c8 2f       	mov	r28, r24
    114c:	d6 2f       	mov	r29, r22
    114e:	14 2f       	mov	r17, r20
    /*       */
    lcd_goto(channel, 0);
    1150:	60 e0       	ldi	r22, 0x00	; 0
    1152:	24 d8       	rcall	.-4024   	; 0x19c <lcd_goto>
    if(status)        
    1154:	11 23       	and	r17, r17
    1156:	21 f0       	breq	.+8      	; 0x1160 <temp_out+0x1c>
		lcd_prints(">");
    1158:	82 e1       	ldi	r24, 0x12	; 18
    115a:	91 e0       	ldi	r25, 0x01	; 1
    115c:	38 d8       	rcall	.-3984   	; 0x1ce <lcd_prints>
    115e:	03 c0       	rjmp	.+6      	; 0x1166 <temp_out+0x22>
    else
        lcd_prints(" ");
    1160:	88 e0       	ldi	r24, 0x08	; 8
    1162:	91 e0       	ldi	r25, 0x01	; 1
    1164:	34 d8       	rcall	.-3992   	; 0x1ce <lcd_prints>
    lcd_putc(1);
    1166:	81 e0       	ldi	r24, 0x01	; 1
    1168:	5c d8       	rcall	.-3912   	; 0x222 <lcd_putc>
	lcd_itostr(channel);
    116a:	6c 2f       	mov	r22, r28
    116c:	70 e0       	ldi	r23, 0x00	; 0
    116e:	80 e0       	ldi	r24, 0x00	; 0
    1170:	90 e0       	ldi	r25, 0x00	; 0
    1172:	83 d8       	rcall	.-3834   	; 0x27a <lcd_itostr>
    lcd_prints("=");
    1174:	84 e1       	ldi	r24, 0x14	; 20
    1176:	91 e0       	ldi	r25, 0x01	; 1
    1178:	2a d8       	rcall	.-4012   	; 0x1ce <lcd_prints>
    lcd_numTOstr(temp_value, 2);
    117a:	62 e0       	ldi	r22, 0x02	; 2
    117c:	8d 2f       	mov	r24, r29
    117e:	90 e0       	ldi	r25, 0x00	; 0
    1180:	11 d9       	rcall	.-3550   	; 0x3a4 <lcd_numTOstr>
    lcd_putc(0);
    1182:	80 e0       	ldi	r24, 0x00	; 0
    1184:	4e d8       	rcall	.-3940   	; 0x222 <lcd_putc>
    lcd_prints("C");
    1186:	84 ef       	ldi	r24, 0xF4	; 244
    1188:	90 e0       	ldi	r25, 0x00	; 0
    118a:	21 d8       	rcall	.-4030   	; 0x1ce <lcd_prints>
}
    118c:	df 91       	pop	r29
    118e:	cf 91       	pop	r28
    1190:	1f 91       	pop	r17
    1192:	08 95       	ret

00001194 <power_out>:
void power_out(uint16_t power_value)
{
    1194:	cf 93       	push	r28
    1196:	df 93       	push	r29
    1198:	ec 01       	movw	r28, r24
    /*       */
    lcd_goto(1, 9);
    119a:	69 e0       	ldi	r22, 0x09	; 9
    119c:	81 e0       	ldi	r24, 0x01	; 1
    119e:	fe d7       	rcall	.+4092   	; 0x219c <__data_load_end+0x89a>
    lcd_putc(2);
    11a0:	82 e0       	ldi	r24, 0x02	; 2
    11a2:	3f d8       	rcall	.-3970   	; 0x222 <lcd_putc>
	lcd_prints("=");
    11a4:	84 e1       	ldi	r24, 0x14	; 20
    11a6:	91 e0       	ldi	r25, 0x01	; 1
    11a8:	12 d8       	rcall	.-4060   	; 0x1ce <lcd_prints>
	lcd_numTOstr(power_value, 4);
    11aa:	64 e0       	ldi	r22, 0x04	; 4
    11ac:	ce 01       	movw	r24, r28
    11ae:	fa d8       	rcall	.-3596   	; 0x3a4 <lcd_numTOstr>
    lcd_prints("W");
    11b0:	87 ef       	ldi	r24, 0xF7	; 247
    11b2:	90 e0       	ldi	r25, 0x00	; 0
    11b4:	0c d8       	rcall	.-4072   	; 0x1ce <lcd_prints>
}
    11b6:	df 91       	pop	r29
    11b8:	cf 91       	pop	r28
    11ba:	08 95       	ret

000011bc <time_out>:
void time_out(uint16_t set_timer, uint16_t timer_secs)
{
    11bc:	0f 93       	push	r16
    11be:	1f 93       	push	r17
    11c0:	cf 93       	push	r28
    11c2:	df 93       	push	r29
    11c4:	eb 01       	movw	r28, r22
    /*       */
	if(timer_enable && !timer_out)
    11c6:	20 91 76 01 	lds	r18, 0x0176
    11ca:	22 23       	and	r18, r18
    11cc:	09 f4       	brne	.+2      	; 0x11d0 <time_out+0x14>
    11ce:	57 c0       	rjmp	.+174    	; 0x127e <time_out+0xc2>
    11d0:	20 91 75 01 	lds	r18, 0x0175
    11d4:	21 11       	cpse	r18, r1
    11d6:	57 c0       	rjmp	.+174    	; 0x1286 <time_out+0xca>
	{
		uint16_t time  = set_timer-timer_secs;
    11d8:	fc 01       	movw	r30, r24
    11da:	e6 1b       	sub	r30, r22
    11dc:	f7 0b       	sbc	r31, r23
		uint16_t tmp   = (time/3600)*3600;
    11de:	20 e1       	ldi	r18, 0x10	; 16
    11e0:	3e e0       	ldi	r19, 0x0E	; 14
    11e2:	cf 01       	movw	r24, r30
    11e4:	b9 01       	movw	r22, r18
    11e6:	7f d2       	rcall	.+1278   	; 0x16e6 <__udivmodhi4>
    11e8:	62 9f       	mul	r22, r18
    11ea:	a0 01       	movw	r20, r0
    11ec:	63 9f       	mul	r22, r19
    11ee:	50 0d       	add	r21, r0
    11f0:	72 9f       	mul	r23, r18
    11f2:	50 0d       	add	r21, r0
    11f4:	11 24       	eor	r1, r1
		uint8_t  first = 0;
		uint8_t second = 0;
		if(time < 3600)
    11f6:	e0 31       	cpi	r30, 0x10	; 16
    11f8:	2e e0       	ldi	r18, 0x0E	; 14
    11fa:	f2 07       	cpc	r31, r18
    11fc:	b0 f4       	brcc	.+44     	; 0x122a <time_out+0x6e>
		{
			first  = (time-tmp)/60;		  // 
    11fe:	9f 01       	movw	r18, r30
    1200:	24 1b       	sub	r18, r20
    1202:	35 0b       	sbc	r19, r21
    1204:	a9 e8       	ldi	r26, 0x89	; 137
    1206:	b8 e8       	ldi	r27, 0x88	; 136
    1208:	c0 d2       	rcall	.+1408   	; 0x178a <__umulhisi3>
    120a:	96 95       	lsr	r25
    120c:	87 95       	ror	r24
    120e:	92 95       	swap	r25
    1210:	82 95       	swap	r24
    1212:	8f 70       	andi	r24, 0x0F	; 15
    1214:	89 27       	eor	r24, r25
    1216:	9f 70       	andi	r25, 0x0F	; 15
    1218:	89 27       	eor	r24, r25
    121a:	08 2f       	mov	r16, r24
			second = time-tmp-(first*60); // 
    121c:	e4 1b       	sub	r30, r20
    121e:	1e 2f       	mov	r17, r30
    1220:	2c e3       	ldi	r18, 0x3C	; 60
    1222:	82 9f       	mul	r24, r18
    1224:	10 19       	sub	r17, r0
    1226:	11 24       	eor	r1, r1
    1228:	10 c0       	rjmp	.+32     	; 0x124a <time_out+0x8e>
		}
		else
		{
			first  = time/3600;		      // 
    122a:	06 2f       	mov	r16, r22
			second = (time-tmp)/60;	      // 
    122c:	9f 01       	movw	r18, r30
    122e:	24 1b       	sub	r18, r20
    1230:	35 0b       	sbc	r19, r21
    1232:	a9 e8       	ldi	r26, 0x89	; 137
    1234:	b8 e8       	ldi	r27, 0x88	; 136
    1236:	a9 d2       	rcall	.+1362   	; 0x178a <__umulhisi3>
    1238:	96 95       	lsr	r25
    123a:	87 95       	ror	r24
    123c:	92 95       	swap	r25
    123e:	82 95       	swap	r24
    1240:	8f 70       	andi	r24, 0x0F	; 15
    1242:	89 27       	eor	r24, r25
    1244:	9f 70       	andi	r25, 0x0F	; 15
    1246:	89 27       	eor	r24, r25
    1248:	18 2f       	mov	r17, r24
		}
		lcd_goto(2, 9);
    124a:	69 e0       	ldi	r22, 0x09	; 9
    124c:	82 e0       	ldi	r24, 0x02	; 2
    124e:	a6 d7       	rcall	.+3916   	; 0x219c <__data_load_end+0x89a>
		lcd_putc(3);
    1250:	83 e0       	ldi	r24, 0x03	; 3
    1252:	e7 d7       	rcall	.+4046   	; 0x2222 <__data_load_end+0x920>
		lcd_prints("=");
    1254:	84 e1       	ldi	r24, 0x14	; 20
    1256:	91 e0       	ldi	r25, 0x01	; 1
    1258:	ba d7       	rcall	.+3956   	; 0x21ce <__data_load_end+0x8cc>
		lcd_numTOstr(first, 2);
    125a:	62 e0       	ldi	r22, 0x02	; 2
    125c:	80 2f       	mov	r24, r16
    125e:	90 e0       	ldi	r25, 0x00	; 0
    1260:	a1 d8       	rcall	.-3774   	; 0x3a4 <lcd_numTOstr>
		if((timer_secs % 2) == 0)
    1262:	c0 fd       	sbrc	r28, 0
    1264:	04 c0       	rjmp	.+8      	; 0x126e <time_out+0xb2>
			lcd_prints(":");
    1266:	84 e0       	ldi	r24, 0x04	; 4
    1268:	91 e0       	ldi	r25, 0x01	; 1
    126a:	b1 d7       	rcall	.+3938   	; 0x21ce <__data_load_end+0x8cc>
    126c:	03 c0       	rjmp	.+6      	; 0x1274 <time_out+0xb8>
		else
			lcd_prints(" ");
    126e:	88 e0       	ldi	r24, 0x08	; 8
    1270:	91 e0       	ldi	r25, 0x01	; 1
    1272:	ad d7       	rcall	.+3930   	; 0x21ce <__data_load_end+0x8cc>
		lcd_numTOstr(second, 2);
    1274:	62 e0       	ldi	r22, 0x02	; 2
    1276:	81 2f       	mov	r24, r17
    1278:	90 e0       	ldi	r25, 0x00	; 0
    127a:	94 d8       	rcall	.-3800   	; 0x3a4 <lcd_numTOstr>
}
void time_out(uint16_t set_timer, uint16_t timer_secs)
{
    /*       */
	if(timer_enable && !timer_out)
	{
    127c:	13 c0       	rjmp	.+38     	; 0x12a4 <time_out+0xe8>
			lcd_prints(":");
		else
			lcd_prints(" ");
		lcd_numTOstr(second, 2);
	}
	else if(timer_out)
    127e:	80 91 75 01 	lds	r24, 0x0175
    1282:	88 23       	and	r24, r24
    1284:	49 f0       	breq	.+18     	; 0x1298 <time_out+0xdc>
	{
		lcd_goto(2, 9);
    1286:	69 e0       	ldi	r22, 0x09	; 9
    1288:	82 e0       	ldi	r24, 0x02	; 2
    128a:	88 d7       	rcall	.+3856   	; 0x219c <__data_load_end+0x89a>
		lcd_putc(3);
    128c:	83 e0       	ldi	r24, 0x03	; 3
    128e:	c9 d7       	rcall	.+3986   	; 0x2222 <__data_load_end+0x920>
		lcd_prints("=--:--");	
    1290:	86 e1       	ldi	r24, 0x16	; 22
    1292:	91 e0       	ldi	r25, 0x01	; 1
    1294:	9c d7       	rcall	.+3896   	; 0x21ce <__data_load_end+0x8cc>
    1296:	06 c0       	rjmp	.+12     	; 0x12a4 <time_out+0xe8>
	}
	else
	{
		lcd_goto(2, 9);
    1298:	69 e0       	ldi	r22, 0x09	; 9
    129a:	82 e0       	ldi	r24, 0x02	; 2
    129c:	7f d7       	rcall	.+3838   	; 0x219c <__data_load_end+0x89a>
		lcd_prints("       ");		
    129e:	8d e1       	ldi	r24, 0x1D	; 29
    12a0:	91 e0       	ldi	r25, 0x01	; 1
    12a2:	95 d7       	rcall	.+3882   	; 0x21ce <__data_load_end+0x8cc>
	}
}
    12a4:	df 91       	pop	r29
    12a6:	cf 91       	pop	r28
    12a8:	1f 91       	pop	r17
    12aa:	0f 91       	pop	r16
    12ac:	08 95       	ret

000012ae <display>:
void display()
{
	/*       */
	if(!overpower)
    12ae:	80 91 6b 01 	lds	r24, 0x016B
    12b2:	81 11       	cpse	r24, r1
    12b4:	1b c0       	rjmp	.+54     	; 0x12ec <display+0x3e>
	{
		temp_out(1, CH1_temp, CHECKBIT(LOAD_PORT, CH1));
    12b6:	43 b3       	in	r20, 0x13	; 19
    12b8:	44 70       	andi	r20, 0x04	; 4
    12ba:	60 91 6f 01 	lds	r22, 0x016F
    12be:	81 e0       	ldi	r24, 0x01	; 1
    12c0:	41 df       	rcall	.-382    	; 0x1144 <temp_out>
		temp_out(2, CH2_temp, CHECKBIT(LOAD_PORT, CH2));
    12c2:	43 b3       	in	r20, 0x13	; 19
    12c4:	42 70       	andi	r20, 0x02	; 2
    12c6:	60 91 6e 01 	lds	r22, 0x016E
    12ca:	82 e0       	ldi	r24, 0x02	; 2
    12cc:	3b df       	rcall	.-394    	; 0x1144 <temp_out>
		power_out(cur_power);
    12ce:	80 91 6c 01 	lds	r24, 0x016C
    12d2:	90 91 6d 01 	lds	r25, 0x016D
    12d6:	5e df       	rcall	.-324    	; 0x1194 <power_out>
		time_out(set_timer, timer_secs);
    12d8:	60 91 73 01 	lds	r22, 0x0173
    12dc:	70 91 74 01 	lds	r23, 0x0174
    12e0:	80 91 7b 01 	lds	r24, 0x017B
    12e4:	90 91 7c 01 	lds	r25, 0x017C
    12e8:	69 df       	rcall	.-302    	; 0x11bc <time_out>
    12ea:	08 95       	ret
	}
	else
	{
		lcd_goto(1, 0);
    12ec:	60 e0       	ldi	r22, 0x00	; 0
    12ee:	81 e0       	ldi	r24, 0x01	; 1
    12f0:	55 d7       	rcall	.+3754   	; 0x219c <__data_load_end+0x89a>
		lcd_prints("W A R N I N G!!!");
    12f2:	85 e2       	ldi	r24, 0x25	; 37
    12f4:	91 e0       	ldi	r25, 0x01	; 1
    12f6:	6b d7       	rcall	.+3798   	; 0x21ce <__data_load_end+0x8cc>
		lcd_goto(2, 0);
    12f8:	60 e0       	ldi	r22, 0x00	; 0
    12fa:	82 e0       	ldi	r24, 0x02	; 2
    12fc:	4f d7       	rcall	.+3742   	; 0x219c <__data_load_end+0x89a>
		lcd_prints("\tOVERPOWER!!!");
    12fe:	86 e3       	ldi	r24, 0x36	; 54
    1300:	91 e0       	ldi	r25, 0x01	; 1
    1302:	65 d7       	rcall	.+3786   	; 0x21ce <__data_load_end+0x8cc>
    1304:	08 95       	ret

00001306 <calibrate>:
}
void calibrate(/* TESTS ARE THERE */)
{
	/*       */
	/*   */
	ADCSRA|=(1<<ADEN);
    1306:	37 9a       	sbi	0x06, 7	; 6
	/*     */
	ADCSRA|=(1<<ADSC);
    1308:	36 9a       	sbi	0x06, 6	; 6
	/*   */
	lcd_clrscr();
    130a:	3e d7       	rcall	.+3708   	; 0x2188 <__data_load_end+0x886>
	lcd_goto(1, 0);
    130c:	60 e0       	ldi	r22, 0x00	; 0
    130e:	81 e0       	ldi	r24, 0x01	; 1
    1310:	45 d7       	rcall	.+3722   	; 0x219c <__data_load_end+0x89a>
	lcd_prints(" CALIBRATING...");
    1312:	84 e4       	ldi	r24, 0x44	; 68
    1314:	91 e0       	ldi	r25, 0x01	; 1
    1316:	5b d7       	rcall	.+3766   	; 0x21ce <__data_load_end+0x8cc>
	lcd_goto(2, 0);
    1318:	60 e0       	ldi	r22, 0x00	; 0
    131a:	82 e0       	ldi	r24, 0x02	; 2
    131c:	3f d7       	rcall	.+3710   	; 0x219c <__data_load_end+0x89a>
	/*    */
	sei();
    131e:	78 94       	sei
	/*    */	
	adc_noise = get_adc_value(NOISE_CAL_CNT);	//  
    1320:	88 ee       	ldi	r24, 0xE8	; 232
    1322:	93 e0       	ldi	r25, 0x03	; 3
    1324:	30 de       	rcall	.-928    	; 0xf86 <get_adc_value>
    1326:	90 93 64 01 	sts	0x0164, r25
    132a:	80 93 63 01 	sts	0x0163, r24
	/* TEST BLOCK */
		lcd_clrscr();
    132e:	2c d7       	rcall	.+3672   	; 0x2188 <__data_load_end+0x886>
		lcd_goto(1, 0);
    1330:	60 e0       	ldi	r22, 0x00	; 0
    1332:	81 e0       	ldi	r24, 0x01	; 1
    1334:	33 d7       	rcall	.+3686   	; 0x219c <__data_load_end+0x89a>
		lcd_prints("ADC Noise = ");
    1336:	84 e5       	ldi	r24, 0x54	; 84
    1338:	91 e0       	ldi	r25, 0x01	; 1
    133a:	49 d7       	rcall	.+3730   	; 0x21ce <__data_load_end+0x8cc>
		lcd_itostr(adc_noise);
    133c:	60 91 63 01 	lds	r22, 0x0163
    1340:	70 91 64 01 	lds	r23, 0x0164
    1344:	80 e0       	ldi	r24, 0x00	; 0
    1346:	90 e0       	ldi	r25, 0x00	; 0
    1348:	98 d7       	rcall	.+3888   	; 0x227a <__data_load_end+0x978>
	#else
		//round up by default
		__ticks_dc = (uint32_t)(ceil(fabs(__tmp)));
	#endif

	__builtin_avr_delay_cycles(__ticks_dc);
    134a:	2f ef       	ldi	r18, 0xFF	; 255
    134c:	83 ed       	ldi	r24, 0xD3	; 211
    134e:	90 e3       	ldi	r25, 0x30	; 48
    1350:	21 50       	subi	r18, 0x01	; 1
    1352:	80 40       	sbci	r24, 0x00	; 0
    1354:	90 40       	sbci	r25, 0x00	; 0
    1356:	e1 f7       	brne	.-8      	; 0x1350 <calibrate+0x4a>
    1358:	00 c0       	rjmp	.+0      	; 0x135a <calibrate+0x54>
    135a:	00 00       	nop
// 		dtostrf(adc_noise*0.0025, 1, 4, ch_array);
// 		lcd_prints(ch_array);
		_delay_ms(1000);
	/* TEST BLOCK */
	/*    */
	cli();
    135c:	f8 94       	cli
	/*     */
	symbols_load();
    135e:	bc db       	rcall	.-2184   	; 0xad8 <symbols_load>
	/*    */
	sei();
    1360:	78 94       	sei
	/*     */
	lcd_clrscr();
    1362:	12 d7       	rcall	.+3620   	; 0x2188 <__data_load_end+0x886>
	mode = WRK_MODE;
    1364:	81 e0       	ldi	r24, 0x01	; 1
    1366:	80 93 82 01 	sts	0x0182, r24
    136a:	08 95       	ret

0000136c <buttons_check>:
}
void buttons_check()
{
    /*     */
	if((CHECKBIT(PIND, MODE_BUTTON) == 0) && (!dev_searching))
    136c:	86 99       	sbic	0x10, 6	; 16
    136e:	42 c0       	rjmp	.+132    	; 0x13f4 <buttons_check+0x88>
    1370:	80 91 63 00 	lds	r24, 0x0063
    1374:	81 11       	cpse	r24, r1
    1376:	3e c0       	rjmp	.+124    	; 0x13f4 <buttons_check+0x88>
    {
        _delay_ms(DEB_INT);
        if(launch == True)
    1378:	80 91 61 00 	lds	r24, 0x0061
    137c:	81 30       	cpi	r24, 0x01	; 1
    137e:	31 f4       	brne	.+12     	; 0x138c <buttons_check+0x20>
        {
            launch = False;
    1380:	10 92 61 00 	sts	0x0061, r1
            mode = CAL_MODE;
    1384:	83 e0       	ldi	r24, 0x03	; 3
    1386:	80 93 82 01 	sts	0x0182, r24
    138a:	ee c0       	rjmp	.+476    	; 0x1568 <buttons_check+0x1fc>
        }
        else
        {
            lcd_clrscr();
    138c:	fd d6       	rcall	.+3578   	; 0x2188 <__data_load_end+0x886>
            if(mode == SET_MODE)
    138e:	80 91 82 01 	lds	r24, 0x0182
    1392:	82 30       	cpi	r24, 0x02	; 2
    1394:	29 f5       	brne	.+74     	; 0x13e0 <buttons_check+0x74>
            {
				if(option < SET_CNT-1)
    1396:	40 91 81 01 	lds	r20, 0x0181
    139a:	24 2f       	mov	r18, r20
    139c:	30 e0       	ldi	r19, 0x00	; 0
    139e:	80 91 62 00 	lds	r24, 0x0062
    13a2:	90 e0       	ldi	r25, 0x00	; 0
    13a4:	01 97       	sbiw	r24, 0x01	; 1
    13a6:	28 17       	cp	r18, r24
    13a8:	39 07       	cpc	r19, r25
    13aa:	24 f4       	brge	.+8      	; 0x13b4 <buttons_check+0x48>
                    option++;
    13ac:	4f 5f       	subi	r20, 0xFF	; 255
    13ae:	40 93 81 01 	sts	0x0181, r20
    13b2:	20 c0       	rjmp	.+64     	; 0x13f4 <buttons_check+0x88>
                else
                {
					eeprom_save();
    13b4:	69 db       	rcall	.-2350   	; 0xa88 <eeprom_save>
					option = SET_TMP;
    13b6:	10 92 81 01 	sts	0x0181, r1
					if(set_timer != 0)
    13ba:	80 91 7b 01 	lds	r24, 0x017B
    13be:	90 91 7c 01 	lds	r25, 0x017C
    13c2:	89 2b       	or	r24, r25
    13c4:	29 f0       	breq	.+10     	; 0x13d0 <buttons_check+0x64>
					{
						timer_reset();
    13c6:	51 dd       	rcall	.-1374   	; 0xe6a <timer_reset>
						timer_enable = True;
    13c8:	81 e0       	ldi	r24, 0x01	; 1
    13ca:	80 93 76 01 	sts	0x0176, r24
    13ce:	04 c0       	rjmp	.+8      	; 0x13d8 <buttons_check+0x6c>
					}
					else
						if(timer_enable)
    13d0:	80 91 76 01 	lds	r24, 0x0176
    13d4:	81 11       	cpse	r24, r1
							timer_reset();
    13d6:	49 dd       	rcall	.-1390   	; 0xe6a <timer_reset>
					mode = WRK_MODE;
    13d8:	81 e0       	ldi	r24, 0x01	; 1
    13da:	80 93 82 01 	sts	0x0182, r24
    13de:	c4 c0       	rjmp	.+392    	; 0x1568 <buttons_check+0x1fc>
                }
            }
            else
            {
                if(mode < MODE_CNT-1)
    13e0:	82 30       	cpi	r24, 0x02	; 2
    13e2:	20 f4       	brcc	.+8      	; 0x13ec <buttons_check+0x80>
                    mode++;
    13e4:	8f 5f       	subi	r24, 0xFF	; 255
    13e6:	80 93 82 01 	sts	0x0182, r24
    13ea:	04 c0       	rjmp	.+8      	; 0x13f4 <buttons_check+0x88>
                else
				{
					mode = WRK_MODE;
    13ec:	81 e0       	ldi	r24, 0x01	; 1
    13ee:	80 93 82 01 	sts	0x0182, r24
    13f2:	ba c0       	rjmp	.+372    	; 0x1568 <buttons_check+0x1fc>
				}
            }
        }
    }
	if(mode == SET_MODE)
    13f4:	80 91 82 01 	lds	r24, 0x0182
    13f8:	82 30       	cpi	r24, 0x02	; 2
    13fa:	09 f0       	breq	.+2      	; 0x13fe <buttons_check+0x92>
    13fc:	a5 c0       	rjmp	.+330    	; 0x1548 <buttons_check+0x1dc>
	{
		if(CHECKBIT(PIND, PLUS_BUTTON) == 0)
    13fe:	87 99       	sbic	0x10, 7	; 16
    1400:	54 c0       	rjmp	.+168    	; 0x14aa <buttons_check+0x13e>
		{
			_delay_ms(DEB_INT);
			switch(option)
    1402:	80 91 81 01 	lds	r24, 0x0181
    1406:	90 e0       	ldi	r25, 0x00	; 0
    1408:	87 30       	cpi	r24, 0x07	; 7
    140a:	91 05       	cpc	r25, r1
    140c:	08 f0       	brcs	.+2      	; 0x1410 <buttons_check+0xa4>
    140e:	af c0       	rjmp	.+350    	; 0x156e <buttons_check+0x202>
    1410:	fc 01       	movw	r30, r24
    1412:	e6 5e       	subi	r30, 0xE6	; 230
    1414:	ff 4f       	sbci	r31, 0xFF	; 255
    1416:	09 94       	ijmp
			{
				case SET_TMP:
 					if(set_max_tmp < temp_max)
    1418:	80 91 80 01 	lds	r24, 0x0180
    141c:	8a 35       	cpi	r24, 0x5A	; 90
    141e:	08 f0       	brcs	.+2      	; 0x1422 <buttons_check+0xb6>
    1420:	a6 c0       	rjmp	.+332    	; 0x156e <buttons_check+0x202>
 						set_max_tmp += temp_delta;
    1422:	8b 5f       	subi	r24, 0xFB	; 251
    1424:	80 93 80 01 	sts	0x0180, r24
    1428:	08 95       	ret
					break;
				case SET_PWR:
					if(set_max_pwr < power_max)
    142a:	80 91 7e 01 	lds	r24, 0x017E
    142e:	90 91 7f 01 	lds	r25, 0x017F
    1432:	8c 3a       	cpi	r24, 0xAC	; 172
    1434:	26 e2       	ldi	r18, 0x26	; 38
    1436:	92 07       	cpc	r25, r18
    1438:	08 f0       	brcs	.+2      	; 0x143c <buttons_check+0xd0>
    143a:	99 c0       	rjmp	.+306    	; 0x156e <buttons_check+0x202>
						set_max_pwr += power_delta;
    143c:	c2 96       	adiw	r24, 0x32	; 50
    143e:	90 93 7f 01 	sts	0x017F, r25
    1442:	80 93 7e 01 	sts	0x017E, r24
    1446:	08 95       	ret
					break;
				case SET_VTG:
					if(set_vtg < voltage_max)
    1448:	80 91 7d 01 	lds	r24, 0x017D
    144c:	8a 3f       	cpi	r24, 0xFA	; 250
    144e:	08 f0       	brcs	.+2      	; 0x1452 <buttons_check+0xe6>
    1450:	8e c0       	rjmp	.+284    	; 0x156e <buttons_check+0x202>
						set_vtg += voltage_delta;
    1452:	8b 5f       	subi	r24, 0xFB	; 251
    1454:	80 93 7d 01 	sts	0x017D, r24
    1458:	08 95       	ret
					break;
				case SET_TIM:
					if(set_timer < timer_max)
    145a:	80 91 7b 01 	lds	r24, 0x017B
    145e:	90 91 7c 01 	lds	r25, 0x017C
    1462:	80 32       	cpi	r24, 0x20	; 32
    1464:	2c e1       	ldi	r18, 0x1C	; 28
    1466:	92 07       	cpc	r25, r18
    1468:	08 f0       	brcs	.+2      	; 0x146c <buttons_check+0x100>
    146a:	81 c0       	rjmp	.+258    	; 0x156e <buttons_check+0x202>
						set_timer += timer_delta;
    146c:	cc 96       	adiw	r24, 0x3c	; 60
    146e:	90 93 7c 01 	sts	0x017C, r25
    1472:	80 93 7b 01 	sts	0x017B, r24
    1476:	08 95       	ret
					break;
				case SET_BUZ:
					set_buzzer ^= On;
    1478:	90 91 60 00 	lds	r25, 0x0060
    147c:	81 e0       	ldi	r24, 0x01	; 1
    147e:	89 27       	eor	r24, r25
    1480:	80 93 60 00 	sts	0x0060, r24
					break;
    1484:	08 95       	ret
				case SET_LUM:
					if(set_light < lcd_light_max)
    1486:	80 91 7a 01 	lds	r24, 0x017A
    148a:	8f 3f       	cpi	r24, 0xFF	; 255
    148c:	09 f4       	brne	.+2      	; 0x1490 <buttons_check+0x124>
    148e:	6f c0       	rjmp	.+222    	; 0x156e <buttons_check+0x202>
						set_light += lcd_light_delta;
    1490:	8b 5f       	subi	r24, 0xFB	; 251
    1492:	80 93 7a 01 	sts	0x017A, r24
    1496:	08 95       	ret
					break;					
				case SET_CTR:
					if(set_contrast < lcd_contr_max)
    1498:	80 91 79 01 	lds	r24, 0x0179
    149c:	8f 3f       	cpi	r24, 0xFF	; 255
    149e:	09 f4       	brne	.+2      	; 0x14a2 <buttons_check+0x136>
    14a0:	66 c0       	rjmp	.+204    	; 0x156e <buttons_check+0x202>
						set_contrast += lcd_contr_delta;
    14a2:	8b 5f       	subi	r24, 0xFB	; 251
    14a4:	80 93 79 01 	sts	0x0179, r24
    14a8:	08 95       	ret
					break;											
			}
		}
		else if(CHECKBIT(PINB, MINUS_BUTTON) == 0)
    14aa:	b0 99       	sbic	0x16, 0	; 22
    14ac:	60 c0       	rjmp	.+192    	; 0x156e <buttons_check+0x202>
		{
			_delay_ms(DEB_INT);
			switch(option)
    14ae:	80 91 81 01 	lds	r24, 0x0181
    14b2:	90 e0       	ldi	r25, 0x00	; 0
    14b4:	87 30       	cpi	r24, 0x07	; 7
    14b6:	91 05       	cpc	r25, r1
    14b8:	08 f0       	brcs	.+2      	; 0x14bc <buttons_check+0x150>
    14ba:	59 c0       	rjmp	.+178    	; 0x156e <buttons_check+0x202>
    14bc:	fc 01       	movw	r30, r24
    14be:	ef 5d       	subi	r30, 0xDF	; 223
    14c0:	ff 4f       	sbci	r31, 0xFF	; 255
    14c2:	09 94       	ijmp
			{
				case SET_TMP:
					if(set_max_tmp > temp_min)
    14c4:	80 91 80 01 	lds	r24, 0x0180
    14c8:	85 31       	cpi	r24, 0x15	; 21
    14ca:	08 f4       	brcc	.+2      	; 0x14ce <buttons_check+0x162>
    14cc:	50 c0       	rjmp	.+160    	; 0x156e <buttons_check+0x202>
						set_max_tmp -= temp_delta;
    14ce:	85 50       	subi	r24, 0x05	; 5
    14d0:	80 93 80 01 	sts	0x0180, r24
    14d4:	08 95       	ret
					break;
				case SET_PWR:
					if(set_max_pwr > power_min)
    14d6:	80 91 7e 01 	lds	r24, 0x017E
    14da:	90 91 7f 01 	lds	r25, 0x017F
    14de:	85 36       	cpi	r24, 0x65	; 101
    14e0:	91 05       	cpc	r25, r1
    14e2:	08 f4       	brcc	.+2      	; 0x14e6 <buttons_check+0x17a>
    14e4:	44 c0       	rjmp	.+136    	; 0x156e <buttons_check+0x202>
						set_max_pwr -= power_delta;
    14e6:	c2 97       	sbiw	r24, 0x32	; 50
    14e8:	90 93 7f 01 	sts	0x017F, r25
    14ec:	80 93 7e 01 	sts	0x017E, r24
    14f0:	08 95       	ret
					break;
				case SET_VTG:
					if(set_vtg > voltage_min)
    14f2:	80 91 7d 01 	lds	r24, 0x017D
    14f6:	85 3b       	cpi	r24, 0xB5	; 181
    14f8:	d0 f1       	brcs	.+116    	; 0x156e <buttons_check+0x202>
						set_vtg -= voltage_delta;
    14fa:	85 50       	subi	r24, 0x05	; 5
    14fc:	80 93 7d 01 	sts	0x017D, r24
    1500:	08 95       	ret
					break;
				case SET_TIM:
					if(set_timer > timer_min)
    1502:	80 91 7b 01 	lds	r24, 0x017B
    1506:	90 91 7c 01 	lds	r25, 0x017C
    150a:	00 97       	sbiw	r24, 0x00	; 0
    150c:	81 f1       	breq	.+96     	; 0x156e <buttons_check+0x202>
						set_timer -= timer_delta;
    150e:	cc 97       	sbiw	r24, 0x3c	; 60
    1510:	90 93 7c 01 	sts	0x017C, r25
    1514:	80 93 7b 01 	sts	0x017B, r24
    1518:	08 95       	ret
					break;
				case SET_BUZ:
					set_buzzer ^= On;
    151a:	90 91 60 00 	lds	r25, 0x0060
    151e:	81 e0       	ldi	r24, 0x01	; 1
    1520:	89 27       	eor	r24, r25
    1522:	80 93 60 00 	sts	0x0060, r24
					break;
    1526:	08 95       	ret
				case SET_LUM:
					if(set_light > lcd_light_min)
    1528:	80 91 7a 01 	lds	r24, 0x017A
    152c:	88 23       	and	r24, r24
    152e:	f9 f0       	breq	.+62     	; 0x156e <buttons_check+0x202>
						set_light -= lcd_light_delta;
    1530:	85 50       	subi	r24, 0x05	; 5
    1532:	80 93 7a 01 	sts	0x017A, r24
    1536:	08 95       	ret
					break;					
				case SET_CTR:
					if(set_contrast > lcd_contr_min)
    1538:	80 91 79 01 	lds	r24, 0x0179
    153c:	88 23       	and	r24, r24
    153e:	b9 f0       	breq	.+46     	; 0x156e <buttons_check+0x202>
						set_contrast -= lcd_contr_delta;
    1540:	85 50       	subi	r24, 0x05	; 5
    1542:	80 93 79 01 	sts	0x0179, r24
    1546:	08 95       	ret
					break;
			}
		}		
	}
	else if(SET_EASTER_EGG && enable_eegg)
    1548:	90 91 83 01 	lds	r25, 0x0183
    154c:	99 23       	and	r25, r25
    154e:	79 f0       	breq	.+30     	; 0x156e <buttons_check+0x202>
	{
		if(CHECKBIT(PINC, PC4) != 0)
    1550:	9c 9b       	sbis	0x13, 4	; 19
    1552:	0d c0       	rjmp	.+26     	; 0x156e <buttons_check+0x202>
		{
			if((mode == WRK_MODE) && (CHECKBIT(PIND, PLUS_BUTTON) == 0) && (CHECKBIT(PINB, MINUS_BUTTON) == 0))
    1554:	81 30       	cpi	r24, 0x01	; 1
    1556:	59 f4       	brne	.+22     	; 0x156e <buttons_check+0x202>
    1558:	87 99       	sbic	0x10, 7	; 16
    155a:	09 c0       	rjmp	.+18     	; 0x156e <buttons_check+0x202>
    155c:	b0 99       	sbic	0x16, 0	; 22
    155e:	07 c0       	rjmp	.+14     	; 0x156e <buttons_check+0x202>
				SET_CNT = SET_CNT_MAX;
    1560:	87 e0       	ldi	r24, 0x07	; 7
    1562:	80 93 62 00 	sts	0x0062, r24
    1566:	08 95       	ret
					mode = WRK_MODE;
				}
            }
        }
    }
	if(mode == SET_MODE)
    1568:	80 91 82 01 	lds	r24, 0x0182
    156c:	ed cf       	rjmp	.-38     	; 0x1548 <buttons_check+0x1dc>
    156e:	08 95       	ret

00001570 <__vector_9>:
        BUTTON_PRESSED = False;
	}     
}*/

ISR(TIMER0_OVF_vect)
{
    1570:	1f 92       	push	r1
    1572:	0f 92       	push	r0
    1574:	0f b6       	in	r0, 0x3f	; 63
    1576:	0f 92       	push	r0
    1578:	11 24       	eor	r1, r1
    157a:	2f 93       	push	r18
    157c:	3f 93       	push	r19
    157e:	4f 93       	push	r20
    1580:	5f 93       	push	r21
    1582:	6f 93       	push	r22
    1584:	7f 93       	push	r23
    1586:	8f 93       	push	r24
    1588:	9f 93       	push	r25
    158a:	af 93       	push	r26
    158c:	bf 93       	push	r27
    158e:	ef 93       	push	r30
    1590:	ff 93       	push	r31
          200   => 12500
          250   => 15625
          500   => 31250
          1000  => 62500
    */
	timer_counter++;
    1592:	80 91 77 01 	lds	r24, 0x0177
    1596:	90 91 78 01 	lds	r25, 0x0178
    159a:	01 96       	adiw	r24, 0x01	; 1
    159c:	90 93 78 01 	sts	0x0178, r25
    15a0:	80 93 77 01 	sts	0x0177, r24
            BUTTON_PRESSED = False;
		}
	/ * TEST BLOCK - INTERRUPT BUTTON * /
*/
	/*      */
	if(timer_counter>=62500)
    15a4:	84 32       	cpi	r24, 0x24	; 36
    15a6:	94 4f       	sbci	r25, 0xF4	; 244
    15a8:	08 f4       	brcc	.+2      	; 0x15ac <__vector_9+0x3c>
    15aa:	48 c0       	rjmp	.+144    	; 0x163c <__vector_9+0xcc>
	{
		/*      */
		if(timer_enable)
    15ac:	80 91 76 01 	lds	r24, 0x0176
    15b0:	88 23       	and	r24, r24
    15b2:	b9 f0       	breq	.+46     	; 0x15e2 <__vector_9+0x72>
		{
			/*    */
			timer_secs++;
    15b4:	80 91 73 01 	lds	r24, 0x0173
    15b8:	90 91 74 01 	lds	r25, 0x0174
    15bc:	01 96       	adiw	r24, 0x01	; 1
    15be:	90 93 74 01 	sts	0x0174, r25
    15c2:	80 93 73 01 	sts	0x0173, r24
			if(timer_secs >= set_timer)
    15c6:	20 91 7b 01 	lds	r18, 0x017B
    15ca:	30 91 7c 01 	lds	r19, 0x017C
    15ce:	82 17       	cp	r24, r18
    15d0:	93 07       	cpc	r25, r19
    15d2:	38 f0       	brcs	.+14     	; 0x15e2 <__vector_9+0x72>
			{
				/*       */
				/*    ,      */
				timer_reset();
    15d4:	4a dc       	rcall	.-1900   	; 0xe6a <timer_reset>
				/*    */
				load_control(0, Off);
    15d6:	60 e0       	ldi	r22, 0x00	; 0
    15d8:	80 e0       	ldi	r24, 0x00	; 0
    15da:	fb da       	rcall	.-2570   	; 0xbd2 <load_control>
				/*  ,   */
				timer_out = True;	
    15dc:	81 e0       	ldi	r24, 0x01	; 1
    15de:	80 93 75 01 	sts	0x0175, r24
			}
		}
		/*      */
		if(set_buzzer && timer_out)
    15e2:	80 91 60 00 	lds	r24, 0x0060
    15e6:	88 23       	and	r24, r24
    15e8:	19 f1       	breq	.+70     	; 0x1630 <__vector_9+0xc0>
    15ea:	80 91 75 01 	lds	r24, 0x0175
    15ee:	88 23       	and	r24, r24
    15f0:	f9 f0       	breq	.+62     	; 0x1630 <__vector_9+0xc0>
		{
			if(BUZZED_TIMES<BUZZ_SIG_CNT)
    15f2:	80 91 72 01 	lds	r24, 0x0172
    15f6:	85 30       	cpi	r24, 0x05	; 5
    15f8:	b0 f4       	brcc	.+44     	; 0x1626 <__vector_9+0xb6>
			{
				if(BUZZ_PART == 0)
    15fa:	80 91 71 01 	lds	r24, 0x0171
    15fe:	81 11       	cpse	r24, r1
    1600:	09 c0       	rjmp	.+18     	; 0x1614 <__vector_9+0xa4>
}
void buzz(uint8_t state)
{
	/*  /   (Buzzer) */
	if(state)
		BUZZER = BUZZ_CFG;
    1602:	80 91 70 01 	lds	r24, 0x0170
    1606:	85 bd       	out	0x25, r24	; 37
			if(BUZZED_TIMES<BUZZ_SIG_CNT)
			{
				if(BUZZ_PART == 0)
				{
					buzz(On);
					BUZZ_PART++;
    1608:	80 91 71 01 	lds	r24, 0x0171
    160c:	8f 5f       	subi	r24, 0xFF	; 255
    160e:	80 93 71 01 	sts	0x0171, r24
    1612:	10 c0       	rjmp	.+32     	; 0x1634 <__vector_9+0xc4>
{
	/*  /   (Buzzer) */
	if(state)
		BUZZER = BUZZ_CFG;
	else
		BUZZER = 0;
    1614:	15 bc       	out	0x25, r1	; 37
					BUZZ_PART++;
				}
				else
				{	
					buzz(Off);
					BUZZ_PART = 0;
    1616:	10 92 71 01 	sts	0x0171, r1
					BUZZED_TIMES++;
    161a:	80 91 72 01 	lds	r24, 0x0172
    161e:	8f 5f       	subi	r24, 0xFF	; 255
    1620:	80 93 72 01 	sts	0x0172, r24
    1624:	07 c0       	rjmp	.+14     	; 0x1634 <__vector_9+0xc4>
				}
			}
			else
			{
				timer_out = False;
    1626:	10 92 75 01 	sts	0x0175, r1
				BUZZED_TIMES = 0;  
    162a:	10 92 72 01 	sts	0x0172, r1
    162e:	02 c0       	rjmp	.+4      	; 0x1634 <__vector_9+0xc4>
			}
		}
		else
			timer_out = False;
    1630:	10 92 75 01 	sts	0x0175, r1
		/*     0 */
		timer_counter = 0;
    1634:	10 92 78 01 	sts	0x0178, r1
    1638:	10 92 77 01 	sts	0x0177, r1
	}
}
    163c:	ff 91       	pop	r31
    163e:	ef 91       	pop	r30
    1640:	bf 91       	pop	r27
    1642:	af 91       	pop	r26
    1644:	9f 91       	pop	r25
    1646:	8f 91       	pop	r24
    1648:	7f 91       	pop	r23
    164a:	6f 91       	pop	r22
    164c:	5f 91       	pop	r21
    164e:	4f 91       	pop	r20
    1650:	3f 91       	pop	r19
    1652:	2f 91       	pop	r18
    1654:	0f 90       	pop	r0
    1656:	0f be       	out	0x3f, r0	; 63
    1658:	0f 90       	pop	r0
    165a:	1f 90       	pop	r1
    165c:	18 95       	reti

0000165e <__vector_14>:
ISR(ADC_vect)
{
    165e:	1f 92       	push	r1
    1660:	0f 92       	push	r0
    1662:	0f b6       	in	r0, 0x3f	; 63
    1664:	0f 92       	push	r0
    1666:	11 24       	eor	r1, r1
    1668:	8f 93       	push	r24
    166a:	9f 93       	push	r25
    166c:	af 93       	push	r26
    166e:	bf 93       	push	r27
    adc_value = ADC;
    1670:	84 b1       	in	r24, 0x04	; 4
    1672:	95 b1       	in	r25, 0x05	; 5
    1674:	a0 e0       	ldi	r26, 0x00	; 0
    1676:	b0 e0       	ldi	r27, 0x00	; 0
    1678:	80 93 67 01 	sts	0x0167, r24
    167c:	90 93 68 01 	sts	0x0168, r25
    1680:	a0 93 69 01 	sts	0x0169, r26
    1684:	b0 93 6a 01 	sts	0x016A, r27
    adc_counter++;
    1688:	80 91 65 01 	lds	r24, 0x0165
    168c:	90 91 66 01 	lds	r25, 0x0166
    1690:	01 96       	adiw	r24, 0x01	; 1
    1692:	90 93 66 01 	sts	0x0166, r25
    1696:	80 93 65 01 	sts	0x0165, r24
    // SINGLE CONVERT MODE
}
    169a:	bf 91       	pop	r27
    169c:	af 91       	pop	r26
    169e:	9f 91       	pop	r25
    16a0:	8f 91       	pop	r24
    16a2:	0f 90       	pop	r0
    16a4:	0f be       	out	0x3f, r0	; 63
    16a6:	0f 90       	pop	r0
    16a8:	1f 90       	pop	r1
    16aa:	18 95       	reti

000016ac <main>:

int main(void)
{
    startup();
    16ac:	c4 da       	rcall	.-2680   	; 0xc36 <startup>

	/* TEST BLOCK */
        set_max_pwr = power_max;
    16ae:	8c ea       	ldi	r24, 0xAC	; 172
    16b0:	96 e2       	ldi	r25, 0x26	; 38
    16b2:	90 93 7f 01 	sts	0x017F, r25
    16b6:	80 93 7e 01 	sts	0x017E, r24
	/* TEST BLOCK */
	while(1)
    {
        buttons_check();
    16ba:	58 de       	rcall	.-848    	; 0x136c <buttons_check>
        switch(mode)
    16bc:	80 91 82 01 	lds	r24, 0x0182
    16c0:	82 30       	cpi	r24, 0x02	; 2
    16c2:	31 f0       	breq	.+12     	; 0x16d0 <main+0x24>
    16c4:	83 30       	cpi	r24, 0x03	; 3
    16c6:	31 f0       	breq	.+12     	; 0x16d4 <main+0x28>
    16c8:	81 30       	cpi	r24, 0x01	; 1
    16ca:	29 f4       	brne	.+10     	; 0x16d6 <main+0x2a>
        {
			case WRK_MODE:
				display();				
    16cc:	f0 dd       	rcall	.-1056   	; 0x12ae <display>
				break;
    16ce:	03 c0       	rjmp	.+6      	; 0x16d6 <main+0x2a>
			case SET_MODE:
				settings();
    16d0:	17 db       	rcall	.-2514   	; 0xd00 <settings>
                break;
    16d2:	01 c0       	rjmp	.+2      	; 0x16d6 <main+0x2a>
            case CAL_MODE:
                calibrate();
    16d4:	18 de       	rcall	.-976    	; 0x1306 <calibrate>
                break;            
        }
		if((mode != 0) && (mode != CAL_MODE))
    16d6:	80 91 82 01 	lds	r24, 0x0182
    16da:	88 23       	and	r24, r24
    16dc:	71 f3       	breq	.-36     	; 0x16ba <main+0xe>
    16de:	83 30       	cpi	r24, 0x03	; 3
    16e0:	61 f3       	breq	.-40     	; 0x16ba <main+0xe>
            values_refresh();
    16e2:	ae dc       	rcall	.-1700   	; 0x1040 <values_refresh>
    16e4:	ea cf       	rjmp	.-44     	; 0x16ba <main+0xe>

000016e6 <__udivmodhi4>:
    16e6:	aa 1b       	sub	r26, r26
    16e8:	bb 1b       	sub	r27, r27
    16ea:	51 e1       	ldi	r21, 0x11	; 17
    16ec:	07 c0       	rjmp	.+14     	; 0x16fc <__udivmodhi4_ep>

000016ee <__udivmodhi4_loop>:
    16ee:	aa 1f       	adc	r26, r26
    16f0:	bb 1f       	adc	r27, r27
    16f2:	a6 17       	cp	r26, r22
    16f4:	b7 07       	cpc	r27, r23
    16f6:	10 f0       	brcs	.+4      	; 0x16fc <__udivmodhi4_ep>
    16f8:	a6 1b       	sub	r26, r22
    16fa:	b7 0b       	sbc	r27, r23

000016fc <__udivmodhi4_ep>:
    16fc:	88 1f       	adc	r24, r24
    16fe:	99 1f       	adc	r25, r25
    1700:	5a 95       	dec	r21
    1702:	a9 f7       	brne	.-22     	; 0x16ee <__udivmodhi4_loop>
    1704:	80 95       	com	r24
    1706:	90 95       	com	r25
    1708:	bc 01       	movw	r22, r24
    170a:	cd 01       	movw	r24, r26
    170c:	08 95       	ret

0000170e <__udivmodsi4>:
    170e:	a1 e2       	ldi	r26, 0x21	; 33
    1710:	1a 2e       	mov	r1, r26
    1712:	aa 1b       	sub	r26, r26
    1714:	bb 1b       	sub	r27, r27
    1716:	fd 01       	movw	r30, r26
    1718:	0d c0       	rjmp	.+26     	; 0x1734 <__udivmodsi4_ep>

0000171a <__udivmodsi4_loop>:
    171a:	aa 1f       	adc	r26, r26
    171c:	bb 1f       	adc	r27, r27
    171e:	ee 1f       	adc	r30, r30
    1720:	ff 1f       	adc	r31, r31
    1722:	a2 17       	cp	r26, r18
    1724:	b3 07       	cpc	r27, r19
    1726:	e4 07       	cpc	r30, r20
    1728:	f5 07       	cpc	r31, r21
    172a:	20 f0       	brcs	.+8      	; 0x1734 <__udivmodsi4_ep>
    172c:	a2 1b       	sub	r26, r18
    172e:	b3 0b       	sbc	r27, r19
    1730:	e4 0b       	sbc	r30, r20
    1732:	f5 0b       	sbc	r31, r21

00001734 <__udivmodsi4_ep>:
    1734:	66 1f       	adc	r22, r22
    1736:	77 1f       	adc	r23, r23
    1738:	88 1f       	adc	r24, r24
    173a:	99 1f       	adc	r25, r25
    173c:	1a 94       	dec	r1
    173e:	69 f7       	brne	.-38     	; 0x171a <__udivmodsi4_loop>
    1740:	60 95       	com	r22
    1742:	70 95       	com	r23
    1744:	80 95       	com	r24
    1746:	90 95       	com	r25
    1748:	9b 01       	movw	r18, r22
    174a:	ac 01       	movw	r20, r24
    174c:	bd 01       	movw	r22, r26
    174e:	cf 01       	movw	r24, r30
    1750:	08 95       	ret

00001752 <__divmodsi4>:
    1752:	05 2e       	mov	r0, r21
    1754:	97 fb       	bst	r25, 7
    1756:	16 f4       	brtc	.+4      	; 0x175c <__divmodsi4+0xa>
    1758:	00 94       	com	r0
    175a:	0f d0       	rcall	.+30     	; 0x177a <__negsi2>
    175c:	57 fd       	sbrc	r21, 7
    175e:	05 d0       	rcall	.+10     	; 0x176a <__divmodsi4_neg2>
    1760:	d6 df       	rcall	.-84     	; 0x170e <__udivmodsi4>
    1762:	07 fc       	sbrc	r0, 7
    1764:	02 d0       	rcall	.+4      	; 0x176a <__divmodsi4_neg2>
    1766:	46 f4       	brtc	.+16     	; 0x1778 <__divmodsi4_exit>
    1768:	08 c0       	rjmp	.+16     	; 0x177a <__negsi2>

0000176a <__divmodsi4_neg2>:
    176a:	50 95       	com	r21
    176c:	40 95       	com	r20
    176e:	30 95       	com	r19
    1770:	21 95       	neg	r18
    1772:	3f 4f       	sbci	r19, 0xFF	; 255
    1774:	4f 4f       	sbci	r20, 0xFF	; 255
    1776:	5f 4f       	sbci	r21, 0xFF	; 255

00001778 <__divmodsi4_exit>:
    1778:	08 95       	ret

0000177a <__negsi2>:
    177a:	90 95       	com	r25
    177c:	80 95       	com	r24
    177e:	70 95       	com	r23
    1780:	61 95       	neg	r22
    1782:	7f 4f       	sbci	r23, 0xFF	; 255
    1784:	8f 4f       	sbci	r24, 0xFF	; 255
    1786:	9f 4f       	sbci	r25, 0xFF	; 255
    1788:	08 95       	ret

0000178a <__umulhisi3>:
    178a:	a2 9f       	mul	r26, r18
    178c:	b0 01       	movw	r22, r0
    178e:	b3 9f       	mul	r27, r19
    1790:	c0 01       	movw	r24, r0
    1792:	a3 9f       	mul	r26, r19
    1794:	01 d0       	rcall	.+2      	; 0x1798 <__umulhisi3+0xe>
    1796:	b2 9f       	mul	r27, r18
    1798:	70 0d       	add	r23, r0
    179a:	81 1d       	adc	r24, r1
    179c:	11 24       	eor	r1, r1
    179e:	91 1d       	adc	r25, r1
    17a0:	08 95       	ret

000017a2 <__eerd_byte_m8>:
    17a2:	e1 99       	sbic	0x1c, 1	; 28
    17a4:	fe cf       	rjmp	.-4      	; 0x17a2 <__eerd_byte_m8>
    17a6:	9f bb       	out	0x1f, r25	; 31
    17a8:	8e bb       	out	0x1e, r24	; 30
    17aa:	e0 9a       	sbi	0x1c, 0	; 28
    17ac:	99 27       	eor	r25, r25
    17ae:	8d b3       	in	r24, 0x1d	; 29
    17b0:	08 95       	ret

000017b2 <__eerd_word_m8>:
    17b2:	a8 e1       	ldi	r26, 0x18	; 24
    17b4:	b0 e0       	ldi	r27, 0x00	; 0
    17b6:	42 e0       	ldi	r20, 0x02	; 2
    17b8:	50 e0       	ldi	r21, 0x00	; 0
    17ba:	12 c0       	rjmp	.+36     	; 0x17e0 <__eerd_blraw_m8>

000017bc <__eewr_byte_m8>:
    17bc:	26 2f       	mov	r18, r22

000017be <__eewr_r18_m8>:
    17be:	e1 99       	sbic	0x1c, 1	; 28
    17c0:	fe cf       	rjmp	.-4      	; 0x17be <__eewr_r18_m8>
    17c2:	9f bb       	out	0x1f, r25	; 31
    17c4:	8e bb       	out	0x1e, r24	; 30
    17c6:	2d bb       	out	0x1d, r18	; 29
    17c8:	0f b6       	in	r0, 0x3f	; 63
    17ca:	f8 94       	cli
    17cc:	e2 9a       	sbi	0x1c, 2	; 28
    17ce:	e1 9a       	sbi	0x1c, 1	; 28
    17d0:	0f be       	out	0x3f, r0	; 63
    17d2:	01 96       	adiw	r24, 0x01	; 1
    17d4:	08 95       	ret

000017d6 <__eewr_word_m8>:
    17d6:	f2 df       	rcall	.-28     	; 0x17bc <__eewr_byte_m8>
    17d8:	27 2f       	mov	r18, r23
    17da:	f1 cf       	rjmp	.-30     	; 0x17be <__eewr_r18_m8>

000017dc <__eerd_block_m8>:
    17dc:	dc 01       	movw	r26, r24
    17de:	cb 01       	movw	r24, r22

000017e0 <__eerd_blraw_m8>:
    17e0:	fc 01       	movw	r30, r24
    17e2:	e1 99       	sbic	0x1c, 1	; 28
    17e4:	fe cf       	rjmp	.-4      	; 0x17e2 <__eerd_blraw_m8+0x2>
    17e6:	06 c0       	rjmp	.+12     	; 0x17f4 <__eerd_blraw_m8+0x14>
    17e8:	ff bb       	out	0x1f, r31	; 31
    17ea:	ee bb       	out	0x1e, r30	; 30
    17ec:	e0 9a       	sbi	0x1c, 0	; 28
    17ee:	31 96       	adiw	r30, 0x01	; 1
    17f0:	0d b2       	in	r0, 0x1d	; 29
    17f2:	0d 92       	st	X+, r0
    17f4:	41 50       	subi	r20, 0x01	; 1
    17f6:	50 40       	sbci	r21, 0x00	; 0
    17f8:	b8 f7       	brcc	.-18     	; 0x17e8 <__eerd_blraw_m8+0x8>
    17fa:	08 95       	ret

000017fc <_exit>:
    17fc:	f8 94       	cli

000017fe <__stop_program>:
    17fe:	ff cf       	rjmp	.-2      	; 0x17fe <__stop_program>
